
========================================================================

** ELF Header Information

    File Name: .\obj\MyProject.axf

    Machine class: ELFCLASS32 (32-bit)
    Data encoding: ELFDATA2LSB (Little endian)
    Header version: EV_CURRENT (Current version)
    Operating System ABI: none
    ABI Version: 0
    File Type: ET_EXEC (Executable) (2)
    Machine: EM_ARM (ARM)

    Image Entry point: 0x000000d5
    Flags: EF_ARM_HASENTRY (0x05000002)

    ARM ELF revision: 5 (ABI version 2)

    Built with
    ARM C/C++ Compiler, 4.1 [Build 894]
    ARM Assembler, 4.1 [Build 894]
    ARM Linker, 4.1 [Build 894] 

    Header size: 52 bytes (0x34)
    Program header entry size: 32 bytes (0x20)
    Section header entry size: 40 bytes (0x28)

    Program header entries: 1
    Section header entries: 16

    Program header offset: 254580 (0x0003e274)
    Section header offset: 254612 (0x0003e294)

    Section header string table index: 15

========================================================================

** Program header #0 (PT_LOAD) [PF_X + PF_W + PF_R + PF_ARM_ENTRY]
    Size : 11760 bytes (8796 bytes in file)
    Virtual address: 0x00000000 (Alignment 8)


========================================================================

** Section #1 'ER_RO' (SHT_PROGBITS) [SHF_ALLOC + SHF_EXECINSTR]
    Size   : 8672 bytes (alignment 4)
    Address: 0x00000000

    $d.realdata
    RESET
    __Vectors
        0x00000000:    20000c10    ...     DCD    536874000
        0x00000004:    000000d5    ....    DCD    213
        0x00000008:    000000f1    ....    DCD    241
        0x0000000c:    000000f3    ....    DCD    243
        0x00000010:    00000000    ....    DCD    0
        0x00000014:    00000000    ....    DCD    0
        0x00000018:    00000000    ....    DCD    0
        0x0000001c:    00000000    ....    DCD    0
        0x00000020:    00000000    ....    DCD    0
        0x00000024:    00000000    ....    DCD    0
        0x00000028:    00000000    ....    DCD    0
        0x0000002c:    000000f5    ....    DCD    245
        0x00000030:    00000000    ....    DCD    0
        0x00000034:    00000000    ....    DCD    0
        0x00000038:    0000015b    [...    DCD    347
        0x0000003c:    000014a5    ....    DCD    5285
        0x00000040:    000000fb    ....    DCD    251
        0x00000044:    000000fb    ....    DCD    251
        0x00000048:    000000fb    ....    DCD    251
        0x0000004c:    000000fb    ....    DCD    251
        0x00000050:    000000fb    ....    DCD    251
        0x00000054:    000000fb    ....    DCD    251
        0x00000058:    000000fb    ....    DCD    251
        0x0000005c:    000000fb    ....    DCD    251
        0x00000060:    000000fb    ....    DCD    251
        0x00000064:    000000fb    ....    DCD    251
        0x00000068:    000000fb    ....    DCD    251
        0x0000006c:    000000fb    ....    DCD    251
        0x00000070:    000000fb    ....    DCD    251
        0x00000074:    00001d7d    }...    DCD    7549
        0x00000078:    000000fb    ....    DCD    251
        0x0000007c:    000000fb    ....    DCD    251
        0x00000080:    000000fb    ....    DCD    251
        0x00000084:    000000fb    ....    DCD    251
        0x00000088:    000000fb    ....    DCD    251
        0x0000008c:    000000fb    ....    DCD    251
        0x00000090:    000000fb    ....    DCD    251
        0x00000094:    000000fb    ....    DCD    251
        0x00000098:    000000fb    ....    DCD    251
        0x0000009c:    000000fb    ....    DCD    251
        0x000000a0:    000000fb    ....    DCD    251
        0x000000a4:    000000fb    ....    DCD    251
        0x000000a8:    000000fb    ....    DCD    251
        0x000000ac:    000000fb    ....    DCD    251
        0x000000b0:    000000fb    ....    DCD    251
        0x000000b4:    000000fb    ....    DCD    251
        0x000000b8:    000000fb    ....    DCD    251
        0x000000bc:    000000fb    ....    DCD    251
    $t
    .ARM.Collect$$$$00000000
    .ARM.Collect$$$$00000001
    __main
    _main_stk
        0x000000c0:    4803        .H      LDR      r0,__lit__00000000 ; [0xd0] = 0x20000c10
        0x000000c2:    4685        .F      MOV      sp,r0
    .ARM.Collect$$$$00000004
    _main_scatterload
        0x000000c4:    f000f898    ....    BL       __scatterload ; 0x1f8
    .ARM.Collect$$$$00000008
    .ARM.Collect$$$$00000009
    __main_after_scatterload
    _main_clock
    _main_init
        0x000000c8:    4800        .H      LDR      r0,[pc,#0] ; [0xcc] = 0x1e2d
        0x000000ca:    4700        .G      BX       r0
    $d
        0x000000cc:    00001e2d    -...    DCD    7725
    .ARM.Collect$$$$00002712
    __lit__00000000
        0x000000d0:    20000c10    ...     DCD    536874000
    $t
    .text
    Reset_Handler
        0x000000d4:    4809        .H      LDR      r0,[pc,#36] ; [0xfc] = 0x50000100
        0x000000d6:    490a        .I      LDR      r1,[pc,#40] ; [0x100] = 0x59
        0x000000d8:    6001        .`      STR      r1,[r0,#0]
        0x000000da:    490a        .I      LDR      r1,[pc,#40] ; [0x104] = 0x16
        0x000000dc:    6001        .`      STR      r1,[r0,#0]
        0x000000de:    490a        .I      LDR      r1,[pc,#40] ; [0x108] = 0x88
        0x000000e0:    6001        .`      STR      r1,[r0,#0]
        0x000000e2:    4a0a        .J      LDR      r2,[pc,#40] ; [0x10c] = 0x50000024
        0x000000e4:    490a        .I      LDR      r1,[pc,#40] ; [0x110] = 0x5aa5
        0x000000e6:    6011        .`      STR      r1,[r2,#0]
        0x000000e8:    2100        .!      MOVS     r1,#0
        0x000000ea:    6001        .`      STR      r1,[r0,#0]
        0x000000ec:    4809        .H      LDR      r0,[pc,#36] ; [0x114] = 0xc1
        0x000000ee:    4700        .G      BX       r0
    NMI_Handler
        0x000000f0:    e7fe        ..      B        NMI_Handler ; 0xf0
    HardFault_Handler
        0x000000f2:    e7fe        ..      B        HardFault_Handler ; 0xf2
    SVC_Handler
        0x000000f4:    e7fe        ..      B        SVC_Handler ; 0xf4
        0x000000f6:    e7fe        ..      B        0xf6 ; SVC_Handler + 2
        0x000000f8:    e7fe        ..      B        0xf8 ; SVC_Handler + 4
    Default_Handler
    ACMP0_IRQHandler
    ACMP1_IRQHandler
    ADC_IRQHandler
    BOD_IRQHandler
    EINT0_IRQHandler
    EINT1_IRQHandler
    GPIOP0P1_IRQHandler
    GPIOP2P3P4_IRQHandler
    I2C0_IRQHandler
    I2C1_IRQHandler
    PWMA_IRQHandler
    PWMB_IRQHandler
    PWRWU_IRQHandler
    RTC_IRQHandler
    SPI0_IRQHandler
    SPI1_IRQHandler
    TMR0_IRQHandler
    TMR1_IRQHandler
    TMR2_IRQHandler
    TMR3_IRQHandler
    UART0_IRQHandler
    WDT_IRQHandler
        0x000000fa:    e7fe        ..      B        Default_Handler ; 0xfa
    $d
        0x000000fc:    50000100    ...P    DCD    1342177536
        0x00000100:    00000059    Y...    DCD    89
        0x00000104:    00000016    ....    DCD    22
        0x00000108:    00000088    ....    DCD    136
        0x0000010c:    50000024    $..P    DCD    1342177316
        0x00000110:    00005aa5    .Z..    DCD    23205
        0x00000114:    000000c1    ....    DCD    193
    $t
    .text
    OS_CPU_SR_Save
        0x00000118:    f3ef8010    ....    MRS      r0,PRIMASK
        0x0000011c:    b672        r.      CPSID    i
        0x0000011e:    4770        pG      BX       lr
    OS_CPU_SR_Restore
        0x00000120:    f3808810    ....    MSR      PRIMASK,r0
        0x00000124:    4770        pG      BX       lr
    OSStartHighRdy
        0x00000126:    481e        .H      LDR      r0,[pc,#120] ; [0x1a0] = 0xe000ed20
        0x00000128:    491e        .I      LDR      r1,[pc,#120] ; [0x1a4] = 0xff0000
        0x0000012a:    6001        .`      STR      r1,[r0,#0]
        0x0000012c:    2000        .       MOVS     r0,#0
        0x0000012e:    f3808809    ....    MSR      PSP,r0
        0x00000132:    481d        .H      LDR      r0,[pc,#116] ; [0x1a8] = 0x20000074
        0x00000134:    6801        .h      LDR      r1,[r0,#0]
        0x00000136:    f3818808    ....    MSR      MSP,r1
        0x0000013a:    481c        .H      LDR      r0,[pc,#112] ; [0x1ac] = 0x2000003c
        0x0000013c:    2101        .!      MOVS     r1,#1
        0x0000013e:    7001        .p      STRB     r1,[r0,#0]
        0x00000140:    481b        .H      LDR      r0,[pc,#108] ; [0x1b0] = 0xe000ed04
        0x00000142:    491c        .I      LDR      r1,[pc,#112] ; [0x1b4] = 0x10000000
        0x00000144:    6001        .`      STR      r1,[r0,#0]
        0x00000146:    b662        b.      CPSIE    i
        0x00000148:    e7fe        ..      B        0x148 ; OSStartHighRdy + 34
    OSCtxSw
        0x0000014a:    4819        .H      LDR      r0,[pc,#100] ; [0x1b0] = 0xe000ed04
        0x0000014c:    4919        .I      LDR      r1,[pc,#100] ; [0x1b4] = 0x10000000
        0x0000014e:    6001        .`      STR      r1,[r0,#0]
        0x00000150:    4770        pG      BX       lr
    OSIntCtxSw
        0x00000152:    4817        .H      LDR      r0,[pc,#92] ; [0x1b0] = 0xe000ed04
        0x00000154:    4917        .I      LDR      r1,[pc,#92] ; [0x1b4] = 0x10000000
        0x00000156:    6001        .`      STR      r1,[r0,#0]
        0x00000158:    4770        pG      BX       lr
    OS_CPU_PendSVHandler
        0x0000015a:    b672        r.      CPSID    i
        0x0000015c:    f3ef8009    ....    MRS      r0,PSP
        0x00000160:    2800        .(      CMP      r0,#0
        0x00000162:    d005        ..      BEQ      0x170 ; OS_CPU_PendSVHandler + 22
        0x00000164:    3810        .8      SUBS     r0,r0,#0x10
        0x00000166:    c0f0        ..      STM      r0!,{r4-r7}
        0x00000168:    3810        .8      SUBS     r0,r0,#0x10
        0x0000016a:    4913        .I      LDR      r1,[pc,#76] ; [0x1b8] = 0x20000044
        0x0000016c:    6809        .h      LDR      r1,[r1,#0]
        0x0000016e:    6008        .`      STR      r0,[r1,#0]
        0x00000170:    b500        ..      PUSH     {lr}
        0x00000172:    4812        .H      LDR      r0,[pc,#72] ; [0x1bc] = 0x106d
        0x00000174:    4780        .G      BLX      r0
        0x00000176:    bc01        ..      POP      {r0}
        0x00000178:    4686        .F      MOV      lr,r0
        0x0000017a:    4811        .H      LDR      r0,[pc,#68] ; [0x1c0] = 0x20000037
        0x0000017c:    4911        .I      LDR      r1,[pc,#68] ; [0x1c4] = 0x20000038
        0x0000017e:    780a        .x      LDRB     r2,[r1,#0]
        0x00000180:    7002        .p      STRB     r2,[r0,#0]
        0x00000182:    480d        .H      LDR      r0,[pc,#52] ; [0x1b8] = 0x20000044
        0x00000184:    4910        .I      LDR      r1,[pc,#64] ; [0x1c8] = 0x2000004c
        0x00000186:    680a        .h      LDR      r2,[r1,#0]
        0x00000188:    6002        .`      STR      r2,[r0,#0]
        0x0000018a:    6810        .h      LDR      r0,[r2,#0]
        0x0000018c:    c8f0        ..      LDM      r0!,{r4-r7}
        0x0000018e:    f3808809    ....    MSR      PSP,r0
        0x00000192:    4670        pF      MOV      r0,lr
        0x00000194:    2104        .!      MOVS     r1,#4
        0x00000196:    4308        .C      ORRS     r0,r0,r1
        0x00000198:    4686        .F      MOV      lr,r0
        0x0000019a:    b662        b.      CPSIE    i
        0x0000019c:    4770        pG      BX       lr
    $d
        0x0000019e:    0000        ..      DCW    0
        0x000001a0:    e000ed20     ...    DCD    3758157088
        0x000001a4:    00ff0000    ....    DCD    16711680
        0x000001a8:    20000074    t..     DCD    536871028
        0x000001ac:    2000003c    <..     DCD    536870972
        0x000001b0:    e000ed04    ....    DCD    3758157060
        0x000001b4:    10000000    ....    DCD    268435456
        0x000001b8:    20000044    D..     DCD    536870980
        0x000001bc:    0000106d    m...    DCD    4205
        0x000001c0:    20000037    7..     DCD    536870967
        0x000001c4:    20000038    8..     DCD    536870968
        0x000001c8:    2000004c    L..     DCD    536870988
    $t
    .text
    __aeabi_uidiv
    __aeabi_uidivmod
        0x000001cc:    b530        0.      PUSH     {r4,r5,lr}
        0x000001ce:    460b        .F      MOV      r3,r1
        0x000001d0:    4601        .F      MOV      r1,r0
        0x000001d2:    2000        .       MOVS     r0,#0
        0x000001d4:    2220         "      MOVS     r2,#0x20
        0x000001d6:    2401        .$      MOVS     r4,#1
        0x000001d8:    e009        ..      B        0x1ee ; __aeabi_uidiv + 34
        0x000001da:    460d        .F      MOV      r5,r1
        0x000001dc:    40d5        .@      LSRS     r5,r5,r2
        0x000001de:    429d        .B      CMP      r5,r3
        0x000001e0:    d305        ..      BCC      0x1ee ; __aeabi_uidiv + 34
        0x000001e2:    461d        .F      MOV      r5,r3
        0x000001e4:    4095        .@      LSLS     r5,r5,r2
        0x000001e6:    1b49        I.      SUBS     r1,r1,r5
        0x000001e8:    4625        %F      MOV      r5,r4
        0x000001ea:    4095        .@      LSLS     r5,r5,r2
        0x000001ec:    1940        @.      ADDS     r0,r0,r5
        0x000001ee:    4615        .F      MOV      r5,r2
        0x000001f0:    1e52        R.      SUBS     r2,r2,#1
        0x000001f2:    2d00        .-      CMP      r5,#0
        0x000001f4:    dcf1        ..      BGT      0x1da ; __aeabi_uidiv + 14
        0x000001f6:    bd30        0.      POP      {r4,r5,pc}
    .text
    __scatterload
    __scatterload_rt2
        0x000001f8:    4c06        .L      LDR      r4,[pc,#24] ; [0x214] = 0x21c0
        0x000001fa:    2501        .%      MOVS     r5,#1
        0x000001fc:    4e06        .N      LDR      r6,[pc,#24] ; [0x218] = 0x21e0
        0x000001fe:    e005        ..      B        0x20c ; __scatterload + 20
        0x00000200:    4620         F      MOV      r0,r4
        0x00000202:    68e3        .h      LDR      r3,[r4,#0xc]
        0x00000204:    c807        ..      LDM      r0,{r0-r2}
        0x00000206:    432b        +C      ORRS     r3,r3,r5
        0x00000208:    4798        .G      BLX      r3
        0x0000020a:    3410        .4      ADDS     r4,r4,#0x10
        0x0000020c:    42b4        .B      CMP      r4,r6
        0x0000020e:    d3f7        ..      BCC      0x200 ; __scatterload + 8
        0x00000210:    f7ffff5a    ..Z.    BL       __main_after_scatterload ; 0xc8
    $d
        0x00000214:    000021c0    .!..    DCD    8640
        0x00000218:    000021e0    .!..    DCD    8672
    $t
    i.AppTaskStart
    AppTaskStart
        0x0000021c:    b086        ..      SUB      sp,sp,#0x18
        0x0000021e:    2001        .       MOVS     r0,#1
        0x00000220:    f000fbc0    ....    BL       OSSemCreate ; 0x9a4
        0x00000224:    4923        #I      LDR      r1,[pc,#140] ; [0x2b4] = 0x2000000c
        0x00000226:    6008        .`      STR      r0,[r1,#0]
        0x00000228:    2000        .       MOVS     r0,#0
        0x0000022a:    f000fa89    ....    BL       OSMboxCreate ; 0x740
        0x0000022e:    4922        "I      LDR      r1,[pc,#136] ; [0x2b8] = 0x20000014
        0x00000230:    6008        .`      STR      r0,[r1,#0]
        0x00000232:    2400        .$      MOVS     r4,#0
        0x00000234:    e006        ..      B        0x244 ; AppTaskStart + 40
        0x00000236:    00e0        ..      LSLS     r0,r4,#3
        0x00000238:    1b00        ..      SUBS     r0,r0,r4
        0x0000023a:    4920         I      LDR      r1,[pc,#128] ; [0x2bc] = 0x200001e4
        0x0000023c:    1840        @.      ADDS     r0,r0,r1
        0x0000023e:    7184        .q      STRB     r4,[r0,#6]
        0x00000240:    1c60        `.      ADDS     r0,r4,#1
        0x00000242:    b2c4        ..      UXTB     r4,r0
        0x00000244:    2c03        .,      CMP      r4,#3
        0x00000246:    dbf6        ..      BLT      0x236 ; AppTaskStart + 26
        0x00000248:    2003        .       MOVS     r0,#3
        0x0000024a:    2100        .!      MOVS     r1,#0
        0x0000024c:    221e        ."      MOVS     r2,#0x1e
        0x0000024e:    4b1c        .K      LDR      r3,[pc,#112] ; [0x2c0] = 0x200000f4
        0x00000250:    9301        ..      STR      r3,[sp,#4]
        0x00000252:    9202        ..      STR      r2,[sp,#8]
        0x00000254:    9103        ..      STR      r1,[sp,#0xc]
        0x00000256:    9004        ..      STR      r0,[sp,#0x10]
        0x00000258:    2005        .       MOVS     r0,#5
        0x0000025a:    4603        .F      MOV      r3,r0
        0x0000025c:    4a18        .J      LDR      r2,[pc,#96] ; [0x2c0] = 0x200000f4
        0x0000025e:    3274        t2      ADDS     r2,r2,#0x74
        0x00000260:    9000        ..      STR      r0,[sp,#0]
        0x00000262:    4818        .H      LDR      r0,[pc,#96] ; [0x2c4] = 0x2ed
        0x00000264:    f000fcc8    ....    BL       OSTaskCreateExt ; 0xbf8
        0x00000268:    aa05        ..      ADD      r2,sp,#0x14
        0x0000026a:    a117        ..      ADR      r1,{pc}+0x5e ; 0x2c8
        0x0000026c:    2005        .       MOVS     r0,#5
        0x0000026e:    f000fde1    ....    BL       OSTaskNameSet ; 0xe34
        0x00000272:    2003        .       MOVS     r0,#3
        0x00000274:    2100        .!      MOVS     r1,#0
        0x00000276:    221e        ."      MOVS     r2,#0x1e
        0x00000278:    4b16        .K      LDR      r3,[pc,#88] ; [0x2d4] = 0x2000016c
        0x0000027a:    9301        ..      STR      r3,[sp,#4]
        0x0000027c:    9202        ..      STR      r2,[sp,#8]
        0x0000027e:    9103        ..      STR      r1,[sp,#0xc]
        0x00000280:    9004        ..      STR      r0,[sp,#0x10]
        0x00000282:    2006        .       MOVS     r0,#6
        0x00000284:    4603        .F      MOV      r3,r0
        0x00000286:    4a13        .J      LDR      r2,[pc,#76] ; [0x2d4] = 0x2000016c
        0x00000288:    3274        t2      ADDS     r2,r2,#0x74
        0x0000028a:    9000        ..      STR      r0,[sp,#0]
        0x0000028c:    4812        .H      LDR      r0,[pc,#72] ; [0x2d8] = 0x339
        0x0000028e:    f000fcb3    ....    BL       OSTaskCreateExt ; 0xbf8
        0x00000292:    aa05        ..      ADD      r2,sp,#0x14
        0x00000294:    a111        ..      ADR      r1,{pc}+0x48 ; 0x2dc
        0x00000296:    2006        .       MOVS     r0,#6
        0x00000298:    f000fdcc    ....    BL       OSTaskNameSet ; 0xe34
        0x0000029c:    4812        .H      LDR      r0,[pc,#72] ; [0x2e8] = 0x2ee0
        0x0000029e:    f001f915    ....    BL       OS_CPU_SysTickInit ; 0x14cc
        0x000002a2:    f000fc7d    ..}.    BL       OSStatInit ; 0xba0
        0x000002a6:    e003        ..      B        0x2b0 ; AppTaskStart + 148
        0x000002a8:    20ff        .       MOVS     r0,#0xff
        0x000002aa:    30f5        .0      ADDS     r0,r0,#0xf5
        0x000002ac:    f000fee2    ....    BL       OSTimeDly ; 0x1074
        0x000002b0:    e7fa        ..      B        0x2a8 ; AppTaskStart + 140
    $d
        0x000002b2:    0000        ..      DCW    0
        0x000002b4:    2000000c    ...     DCD    536870924
        0x000002b8:    20000014    ...     DCD    536870932
        0x000002bc:    200001e4    ...     DCD    536871396
        0x000002c0:    200000f4    ...     DCD    536871156
        0x000002c4:    000002ed    ....    DCD    749
        0x000002c8:    72617453    Star    DCD    1918989395
        0x000002cc:    65545f74    t_Te    DCD    1700028276
        0x000002d0:    00007473    st..    DCD    29811
        0x000002d4:    2000016c    l..     DCD    536871276
        0x000002d8:    00000339    9...    DCD    825
        0x000002dc:    72617453    Star    DCD    1918989395
        0x000002e0:    65545f74    t_Te    DCD    1700028276
        0x000002e4:    00317473    st1.    DCD    3241075
        0x000002e8:    00002ee0    ....    DCD    12000
    $t
    i.AppTest
    AppTest
        0x000002ec:    b508        ..      PUSH     {r3,lr}
        0x000002ee:    e01e        ..      B        0x32e ; AppTest + 66
        0x000002f0:    466a        jF      MOV      r2,sp
        0x000002f2:    217d        }!      MOVS     r1,#0x7d
        0x000002f4:    00c9        ..      LSLS     r1,r1,#3
        0x000002f6:    480e        .H      LDR      r0,[pc,#56] ; [0x330] = 0x20000014
        0x000002f8:    6800        .h      LDR      r0,[r0,#0]
        0x000002fa:    f000fa4f    ..O.    BL       OSMboxPend ; 0x79c
        0x000002fe:    4604        .F      MOV      r4,r0
        0x00000300:    4668        hF      MOV      r0,sp
        0x00000302:    7800        .x      LDRB     r0,[r0,#0]
        0x00000304:    2800        .(      CMP      r0,#0
        0x00000306:    d110        ..      BNE      0x32a ; AppTest + 62
        0x00000308:    7820         x      LDRB     r0,[r4,#0]
        0x0000030a:    490a        .I      LDR      r1,[pc,#40] ; [0x334] = 0x200001f9
        0x0000030c:    7008        .p      STRB     r0,[r1,#0]
        0x0000030e:    7860        `x      LDRB     r0,[r4,#1]
        0x00000310:    7048        Hp      STRB     r0,[r1,#1]
        0x00000312:    78a0        .x      LDRB     r0,[r4,#2]
        0x00000314:    7088        .p      STRB     r0,[r1,#2]
        0x00000316:    78e0        .x      LDRB     r0,[r4,#3]
        0x00000318:    70c8        .p      STRB     r0,[r1,#3]
        0x0000031a:    7920         y      LDRB     r0,[r4,#4]
        0x0000031c:    7108        .q      STRB     r0,[r1,#4]
        0x0000031e:    7960        `y      LDRB     r0,[r4,#5]
        0x00000320:    7148        Hq      STRB     r0,[r1,#5]
        0x00000322:    2006        .       MOVS     r0,#6
        0x00000324:    f001fe70    ..p.    BL       usart1_sendbuf ; 0x2008
        0x00000328:    e001        ..      B        0x32e ; AppTest + 66
        0x0000032a:    f001fd17    ....    BL       T_set_mode1 ; 0x1d5c
        0x0000032e:    e7df        ..      B        0x2f0 ; AppTest + 4
    $d
        0x00000330:    20000014    ...     DCD    536870932
        0x00000334:    200001f9    ...     DCD    536871417
    $t
    i.AppTest1
    AppTest1
        0x00000338:    e01e        ..      B        0x378 ; AppTest1 + 64
        0x0000033a:    20ff        .       MOVS     r0,#0xff
        0x0000033c:    490f        .I      LDR      r1,[pc,#60] ; [0x37c] = 0x200001e4
        0x0000033e:    7008        .p      STRB     r0,[r1,#0]
        0x00000340:    2055        U       MOVS     r0,#0x55
        0x00000342:    71c8        .q      STRB     r0,[r1,#7]
        0x00000344:    20aa        .       MOVS     r0,#0xaa
        0x00000346:    7388        .s      STRB     r0,[r1,#0xe]
        0x00000348:    480d        .H      LDR      r0,[pc,#52] ; [0x380] = 0x20000010
        0x0000034a:    7802        .x      LDRB     r2,[r0,#0]
        0x0000034c:    7800        .x      LDRB     r0,[r0,#0]
        0x0000034e:    1c40        @.      ADDS     r0,r0,#1
        0x00000350:    4b0b        .K      LDR      r3,[pc,#44] ; [0x380] = 0x20000010
        0x00000352:    7018        .p      STRB     r0,[r3,#0]
        0x00000354:    00d0        ..      LSLS     r0,r2,#3
        0x00000356:    1a80        ..      SUBS     r0,r0,r2
        0x00000358:    460a        .F      MOV      r2,r1
        0x0000035a:    1881        ..      ADDS     r1,r0,r2
        0x0000035c:    4809        .H      LDR      r0,[pc,#36] ; [0x384] = 0x20000014
        0x0000035e:    6800        .h      LDR      r0,[r0,#0]
        0x00000360:    f000faa4    ....    BL       OSMboxPost ; 0x8ac
        0x00000364:    4806        .H      LDR      r0,[pc,#24] ; [0x380] = 0x20000010
        0x00000366:    7800        .x      LDRB     r0,[r0,#0]
        0x00000368:    2803        .(      CMP      r0,#3
        0x0000036a:    db02        ..      BLT      0x372 ; AppTest1 + 58
        0x0000036c:    2000        .       MOVS     r0,#0
        0x0000036e:    4904        .I      LDR      r1,[pc,#16] ; [0x380] = 0x20000010
        0x00000370:    7008        .p      STRB     r0,[r1,#0]
        0x00000372:    4805        .H      LDR      r0,[pc,#20] ; [0x388] = 0xbb8
        0x00000374:    f000fe7e    ..~.    BL       OSTimeDly ; 0x1074
        0x00000378:    e7df        ..      B        0x33a ; AppTest1 + 2
    $d
        0x0000037a:    0000        ..      DCW    0
        0x0000037c:    200001e4    ...     DCD    536871396
        0x00000380:    20000010    ...     DCD    536870928
        0x00000384:    20000014    ...     DCD    536870932
        0x00000388:    00000bb8    ....    DCD    3000
    $t
    i.App_TCBInitHook
    App_TCBInitHook
        0x0000038c:    4770        pG      BX       lr
    i.App_TaskCreateHook
    App_TaskCreateHook
        0x0000038e:    4770        pG      BX       lr
    i.App_TaskDelHook
    App_TaskDelHook
        0x00000390:    4770        pG      BX       lr
    i.App_TaskIdleHook
    App_TaskIdleHook
        0x00000392:    4770        pG      BX       lr
    i.App_TaskReturnHook
    App_TaskReturnHook
        0x00000394:    4770        pG      BX       lr
    i.App_TaskStatHook
    App_TaskStatHook
        0x00000396:    4770        pG      BX       lr
    i.App_TaskSwHook
    App_TaskSwHook
        0x00000398:    4770        pG      BX       lr
    i.App_TimeTickHook
    App_TimeTickHook
        0x0000039a:    4770        pG      BX       lr
    i.DrvSYS_GetPLLClockFreq
    DrvSYS_GetPLLClockFreq
        0x0000039c:    b5fe        ..      PUSH     {r1-r7,lr}
        0x0000039e:    a01a        ..      ADR      r0,{pc}+0x6a ; 0x408
        0x000003a0:    6800        .h      LDR      r0,[r0,#0]
        0x000003a2:    9000        ..      STR      r0,[sp,#0]
        0x000003a4:    2000        .       MOVS     r0,#0
        0x000003a6:    9002        ..      STR      r0,[sp,#8]
        0x000003a8:    4818        .H      LDR      r0,[pc,#96] ; [0x40c] = 0x50000200
        0x000003aa:    6a04        .j      LDR      r4,[r0,#0x20]
        0x000003ac:    1300        ..      ASRS     r0,r0,#12
        0x000003ae:    4204        .B      TST      r4,r0
        0x000003b0:    d127        '.      BNE      0x402 ; DrvSYS_GetPLLClockFreq + 102
        0x000003b2:    2001        .       MOVS     r0,#1
        0x000003b4:    04c0        ..      LSLS     r0,r0,#19
        0x000003b6:    4204        .B      TST      r4,r0
        0x000003b8:    d001        ..      BEQ      0x3be ; DrvSYS_GetPLLClockFreq + 34
        0x000003ba:    4815        .H      LDR      r0,[pc,#84] ; [0x410] = 0x1518000
        0x000003bc:    e000        ..      B        0x3c0 ; DrvSYS_GetPLLClockFreq + 36
        0x000003be:    4815        .H      LDR      r0,[pc,#84] ; [0x414] = 0xb71b00
        0x000003c0:    4605        .F      MOV      r5,r0
        0x000003c2:    2001        .       MOVS     r0,#1
        0x000003c4:    0440        @.      LSLS     r0,r0,#17
        0x000003c6:    4204        .B      TST      r4,r0
        0x000003c8:    d001        ..      BEQ      0x3ce ; DrvSYS_GetPLLClockFreq + 50
        0x000003ca:    9502        ..      STR      r5,[sp,#8]
        0x000003cc:    e019        ..      B        0x402 ; DrvSYS_GetPLLClockFreq + 102
        0x000003ce:    2003        .       MOVS     r0,#3
        0x000003d0:    0380        ..      LSLS     r0,r0,#14
        0x000003d2:    4020         @      ANDS     r0,r0,r4
        0x000003d4:    0b80        ..      LSRS     r0,r0,#14
        0x000003d6:    4669        iF      MOV      r1,sp
        0x000003d8:    5c0f        .\      LDRB     r7,[r1,r0]
        0x000003da:    05e0        ..      LSLS     r0,r4,#23
        0x000003dc:    0dc0        ..      LSRS     r0,r0,#23
        0x000003de:    1c80        ..      ADDS     r0,r0,#2
        0x000003e0:    9001        ..      STR      r0,[sp,#4]
        0x000003e2:    201f        .       MOVS     r0,#0x1f
        0x000003e4:    0240        @.      LSLS     r0,r0,#9
        0x000003e6:    4020         @      ANDS     r0,r0,r4
        0x000003e8:    0a40        @.      LSRS     r0,r0,#9
        0x000003ea:    1c86        ..      ADDS     r6,r0,#2
        0x000003ec:    4632        2F      MOV      r2,r6
        0x000003ee:    437a        zC      MULS     r2,r7,r2
        0x000003f0:    4611        .F      MOV      r1,r2
        0x000003f2:    08ab        ..      LSRS     r3,r5,#2
        0x000003f4:    9a01        ..      LDR      r2,[sp,#4]
        0x000003f6:    4353        SC      MULS     r3,r2,r3
        0x000003f8:    4618        .F      MOV      r0,r3
        0x000003fa:    f7fffee7    ....    BL       __aeabi_uidiv ; 0x1cc
        0x000003fe:    0080        ..      LSLS     r0,r0,#2
        0x00000400:    9002        ..      STR      r0,[sp,#8]
        0x00000402:    9802        ..      LDR      r0,[sp,#8]
        0x00000404:    bdfe        ..      POP      {r1-r7,pc}
    $d
        0x00000406:    0000        ..      DCW    0
        0x00000408:    04020201    ....    DCD    67240449
        0x0000040c:    50000200    ...P    DCD    1342177792
        0x00000410:    01518000    ..Q.    DCD    22118400
        0x00000414:    00b71b00    ....    DCD    12000000
    $t
    i.NVIC_SetPriority
    NVIC_SetPriority
        0x00000418:    b510        ..      PUSH     {r4,lr}
        0x0000041a:    2800        .(      CMP      r0,#0
        0x0000041c:    da19        ..      BGE      0x452 ; NVIC_SetPriority + 58
        0x0000041e:    4a1a        .J      LDR      r2,[pc,#104] ; [0x488] = 0xe000ed1c
        0x00000420:    0703        ..      LSLS     r3,r0,#28
        0x00000422:    0f1b        ..      LSRS     r3,r3,#28
        0x00000424:    3b08        .;      SUBS     r3,r3,#8
        0x00000426:    089b        ..      LSRS     r3,r3,#2
        0x00000428:    009b        ..      LSLS     r3,r3,#2
        0x0000042a:    58d2        .X      LDR      r2,[r2,r3]
        0x0000042c:    0783        ..      LSLS     r3,r0,#30
        0x0000042e:    0edc        ..      LSRS     r4,r3,#27
        0x00000430:    23ff        .#      MOVS     r3,#0xff
        0x00000432:    40a3        .@      LSLS     r3,r3,r4
        0x00000434:    439a        .C      BICS     r2,r2,r3
        0x00000436:    078b        ..      LSLS     r3,r1,#30
        0x00000438:    0e1b        ..      LSRS     r3,r3,#24
        0x0000043a:    0784        ..      LSLS     r4,r0,#30
        0x0000043c:    0ee4        ..      LSRS     r4,r4,#27
        0x0000043e:    40a3        .@      LSLS     r3,r3,r4
        0x00000440:    431a        .C      ORRS     r2,r2,r3
        0x00000442:    4b11        .K      LDR      r3,[pc,#68] ; [0x488] = 0xe000ed1c
        0x00000444:    0704        ..      LSLS     r4,r0,#28
        0x00000446:    0f24        $.      LSRS     r4,r4,#28
        0x00000448:    3c08        .<      SUBS     r4,r4,#8
        0x0000044a:    08a4        ..      LSRS     r4,r4,#2
        0x0000044c:    00a4        ..      LSLS     r4,r4,#2
        0x0000044e:    511a        .Q      STR      r2,[r3,r4]
        0x00000450:    e018        ..      B        0x484 ; NVIC_SetPriority + 108
        0x00000452:    4a0e        .J      LDR      r2,[pc,#56] ; [0x48c] = 0xe000e100
        0x00000454:    2303        .#      MOVS     r3,#3
        0x00000456:    021b        ..      LSLS     r3,r3,#8
        0x00000458:    18d2        ..      ADDS     r2,r2,r3
        0x0000045a:    0883        ..      LSRS     r3,r0,#2
        0x0000045c:    009b        ..      LSLS     r3,r3,#2
        0x0000045e:    58d2        .X      LDR      r2,[r2,r3]
        0x00000460:    0783        ..      LSLS     r3,r0,#30
        0x00000462:    0edc        ..      LSRS     r4,r3,#27
        0x00000464:    23ff        .#      MOVS     r3,#0xff
        0x00000466:    40a3        .@      LSLS     r3,r3,r4
        0x00000468:    439a        .C      BICS     r2,r2,r3
        0x0000046a:    078b        ..      LSLS     r3,r1,#30
        0x0000046c:    0e1b        ..      LSRS     r3,r3,#24
        0x0000046e:    0784        ..      LSLS     r4,r0,#30
        0x00000470:    0ee4        ..      LSRS     r4,r4,#27
        0x00000472:    40a3        .@      LSLS     r3,r3,r4
        0x00000474:    431a        .C      ORRS     r2,r2,r3
        0x00000476:    4b05        .K      LDR      r3,[pc,#20] ; [0x48c] = 0xe000e100
        0x00000478:    2403        .$      MOVS     r4,#3
        0x0000047a:    0224        $.      LSLS     r4,r4,#8
        0x0000047c:    191b        ..      ADDS     r3,r3,r4
        0x0000047e:    0884        ..      LSRS     r4,r0,#2
        0x00000480:    00a4        ..      LSLS     r4,r4,#2
        0x00000482:    511a        .Q      STR      r2,[r3,r4]
        0x00000484:    bd10        ..      POP      {r4,pc}
    $d
        0x00000486:    0000        ..      DCW    0
        0x00000488:    e000ed1c    ....    DCD    3758157084
        0x0000048c:    e000e100    ....    DCD    3758153984
    $t
    i.OSDebugInit
    OSDebugInit
        0x00000490:    481d        .H      LDR      r0,[pc,#116] ; [0x508] = 0x214c
        0x00000492:    481e        .H      LDR      r0,[pc,#120] ; [0x50c] = 0x2150
        0x00000494:    481e        .H      LDR      r0,[pc,#120] ; [0x510] = 0x2156
        0x00000496:    481f        .H      LDR      r0,[pc,#124] ; [0x514] = 0x2158
        0x00000498:    481f        .H      LDR      r0,[pc,#124] ; [0x518] = 0x2154
        0x0000049a:    4820         H      LDR      r0,[pc,#128] ; [0x51c] = 0x215a
        0x0000049c:    4820         H      LDR      r0,[pc,#128] ; [0x520] = 0x215c
        0x0000049e:    4821        !H      LDR      r0,[pc,#132] ; [0x524] = 0x215e
        0x000004a0:    4821        !H      LDR      r0,[pc,#132] ; [0x528] = 0x2160
        0x000004a2:    4822        "H      LDR      r0,[pc,#136] ; [0x52c] = 0x2162
        0x000004a4:    4822        "H      LDR      r0,[pc,#136] ; [0x530] = 0x2164
        0x000004a6:    4823        #H      LDR      r0,[pc,#140] ; [0x534] = 0x2166
        0x000004a8:    4823        #H      LDR      r0,[pc,#140] ; [0x538] = 0x2168
        0x000004aa:    4824        $H      LDR      r0,[pc,#144] ; [0x53c] = 0x216a
        0x000004ac:    4824        $H      LDR      r0,[pc,#144] ; [0x540] = 0x216c
        0x000004ae:    4825        %H      LDR      r0,[pc,#148] ; [0x544] = 0x216e
        0x000004b0:    4825        %H      LDR      r0,[pc,#148] ; [0x548] = 0x2170
        0x000004b2:    4826        &H      LDR      r0,[pc,#152] ; [0x54c] = 0x2172
        0x000004b4:    4826        &H      LDR      r0,[pc,#152] ; [0x550] = 0x2174
        0x000004b6:    4827        'H      LDR      r0,[pc,#156] ; [0x554] = 0x2176
        0x000004b8:    4827        'H      LDR      r0,[pc,#156] ; [0x558] = 0x2178
        0x000004ba:    4828        (H      LDR      r0,[pc,#160] ; [0x55c] = 0x217a
        0x000004bc:    4828        (H      LDR      r0,[pc,#160] ; [0x560] = 0x217c
        0x000004be:    4829        )H      LDR      r0,[pc,#164] ; [0x564] = 0x217e
        0x000004c0:    4829        )H      LDR      r0,[pc,#164] ; [0x568] = 0x2180
        0x000004c2:    482a        *H      LDR      r0,[pc,#168] ; [0x56c] = 0x2182
        0x000004c4:    482a        *H      LDR      r0,[pc,#168] ; [0x570] = 0x2184
        0x000004c6:    482b        +H      LDR      r0,[pc,#172] ; [0x574] = 0x2186
        0x000004c8:    482b        +H      LDR      r0,[pc,#172] ; [0x578] = 0x2188
        0x000004ca:    482c        ,H      LDR      r0,[pc,#176] ; [0x57c] = 0x218a
        0x000004cc:    482c        ,H      LDR      r0,[pc,#176] ; [0x580] = 0x218c
        0x000004ce:    482d        -H      LDR      r0,[pc,#180] ; [0x584] = 0x218e
        0x000004d0:    482d        -H      LDR      r0,[pc,#180] ; [0x588] = 0x2190
        0x000004d2:    482e        .H      LDR      r0,[pc,#184] ; [0x58c] = 0x2192
        0x000004d4:    482e        .H      LDR      r0,[pc,#184] ; [0x590] = 0x2194
        0x000004d6:    482f        /H      LDR      r0,[pc,#188] ; [0x594] = 0x2196
        0x000004d8:    482f        /H      LDR      r0,[pc,#188] ; [0x598] = 0x2198
        0x000004da:    4830        0H      LDR      r0,[pc,#192] ; [0x59c] = 0x219a
        0x000004dc:    4830        0H      LDR      r0,[pc,#192] ; [0x5a0] = 0x219c
        0x000004de:    4831        1H      LDR      r0,[pc,#196] ; [0x5a4] = 0x219e
        0x000004e0:    4831        1H      LDR      r0,[pc,#196] ; [0x5a8] = 0x21a0
        0x000004e2:    4832        2H      LDR      r0,[pc,#200] ; [0x5ac] = 0x21a2
        0x000004e4:    4832        2H      LDR      r0,[pc,#200] ; [0x5b0] = 0x21a4
        0x000004e6:    4833        3H      LDR      r0,[pc,#204] ; [0x5b4] = 0x21a6
        0x000004e8:    4833        3H      LDR      r0,[pc,#204] ; [0x5b8] = 0x20000750
        0x000004ea:    4834        4H      LDR      r0,[pc,#208] ; [0x5bc] = 0x200008cc
        0x000004ec:    4834        4H      LDR      r0,[pc,#208] ; [0x5c0] = 0x21aa
        0x000004ee:    4835        5H      LDR      r0,[pc,#212] ; [0x5c4] = 0x21ac
        0x000004f0:    4835        5H      LDR      r0,[pc,#212] ; [0x5c8] = 0x21ae
        0x000004f2:    4836        6H      LDR      r0,[pc,#216] ; [0x5cc] = 0x21b0
        0x000004f4:    4836        6H      LDR      r0,[pc,#216] ; [0x5d0] = 0x21b2
        0x000004f6:    4837        7H      LDR      r0,[pc,#220] ; [0x5d4] = 0x21b4
        0x000004f8:    4837        7H      LDR      r0,[pc,#220] ; [0x5d8] = 0x21b6
        0x000004fa:    4838        8H      LDR      r0,[pc,#224] ; [0x5dc] = 0x21b8
        0x000004fc:    4838        8H      LDR      r0,[pc,#224] ; [0x5e0] = 0x21ba
        0x000004fe:    4839        9H      LDR      r0,[pc,#228] ; [0x5e4] = 0x21a8
        0x00000500:    4839        9H      LDR      r0,[pc,#228] ; [0x5e8] = 0x21bc
        0x00000502:    bf00        ..      NOP      
        0x00000504:    4770        pG      BX       lr
    $d
        0x00000506:    0000        ..      DCW    0
        0x00000508:    0000214c    L!..    DCD    8524
        0x0000050c:    00002150    P!..    DCD    8528
        0x00000510:    00002156    V!..    DCD    8534
        0x00000514:    00002158    X!..    DCD    8536
        0x00000518:    00002154    T!..    DCD    8532
        0x0000051c:    0000215a    Z!..    DCD    8538
        0x00000520:    0000215c    \!..    DCD    8540
        0x00000524:    0000215e    ^!..    DCD    8542
        0x00000528:    00002160    `!..    DCD    8544
        0x0000052c:    00002162    b!..    DCD    8546
        0x00000530:    00002164    d!..    DCD    8548
        0x00000534:    00002166    f!..    DCD    8550
        0x00000538:    00002168    h!..    DCD    8552
        0x0000053c:    0000216a    j!..    DCD    8554
        0x00000540:    0000216c    l!..    DCD    8556
        0x00000544:    0000216e    n!..    DCD    8558
        0x00000548:    00002170    p!..    DCD    8560
        0x0000054c:    00002172    r!..    DCD    8562
        0x00000550:    00002174    t!..    DCD    8564
        0x00000554:    00002176    v!..    DCD    8566
        0x00000558:    00002178    x!..    DCD    8568
        0x0000055c:    0000217a    z!..    DCD    8570
        0x00000560:    0000217c    |!..    DCD    8572
        0x00000564:    0000217e    ~!..    DCD    8574
        0x00000568:    00002180    .!..    DCD    8576
        0x0000056c:    00002182    .!..    DCD    8578
        0x00000570:    00002184    .!..    DCD    8580
        0x00000574:    00002186    .!..    DCD    8582
        0x00000578:    00002188    .!..    DCD    8584
        0x0000057c:    0000218a    .!..    DCD    8586
        0x00000580:    0000218c    .!..    DCD    8588
        0x00000584:    0000218e    .!..    DCD    8590
        0x00000588:    00002190    .!..    DCD    8592
        0x0000058c:    00002192    .!..    DCD    8594
        0x00000590:    00002194    .!..    DCD    8596
        0x00000594:    00002196    .!..    DCD    8598
        0x00000598:    00002198    .!..    DCD    8600
        0x0000059c:    0000219a    .!..    DCD    8602
        0x000005a0:    0000219c    .!..    DCD    8604
        0x000005a4:    0000219e    .!..    DCD    8606
        0x000005a8:    000021a0    .!..    DCD    8608
        0x000005ac:    000021a2    .!..    DCD    8610
        0x000005b0:    000021a4    .!..    DCD    8612
        0x000005b4:    000021a6    .!..    DCD    8614
        0x000005b8:    20000750    P..     DCD    536872784
        0x000005bc:    200008cc    ...     DCD    536873164
        0x000005c0:    000021aa    .!..    DCD    8618
        0x000005c4:    000021ac    .!..    DCD    8620
        0x000005c8:    000021ae    .!..    DCD    8622
        0x000005cc:    000021b0    .!..    DCD    8624
        0x000005d0:    000021b2    .!..    DCD    8626
        0x000005d4:    000021b4    .!..    DCD    8628
        0x000005d8:    000021b6    .!..    DCD    8630
        0x000005dc:    000021b8    .!..    DCD    8632
        0x000005e0:    000021ba    .!..    DCD    8634
        0x000005e4:    000021a8    .!..    DCD    8616
        0x000005e8:    000021bc    .!..    DCD    8636
    $t
    i.OSEventNameSet
    OSEventNameSet
        0x000005ec:    b5f8        ..      PUSH     {r3-r7,lr}
        0x000005ee:    4605        .F      MOV      r5,r0
        0x000005f0:    460e        .F      MOV      r6,r1
        0x000005f2:    4614        .F      MOV      r4,r2
        0x000005f4:    2700        .'      MOVS     r7,#0
        0x000005f6:    4812        .H      LDR      r0,[pc,#72] ; [0x640] = 0x20000035
        0x000005f8:    7800        .x      LDRB     r0,[r0,#0]
        0x000005fa:    2800        .(      CMP      r0,#0
        0x000005fc:    d002        ..      BEQ      0x604 ; OSEventNameSet + 24
        0x000005fe:    2012        .       MOVS     r0,#0x12
        0x00000600:    7020         p      STRB     r0,[r4,#0]
        0x00000602:    bdf8        ..      POP      {r3-r7,pc}
        0x00000604:    7828        (x      LDRB     r0,[r5,#0]
        0x00000606:    2801        .(      CMP      r0,#1
        0x00000608:    d008        ..      BEQ      0x61c ; OSEventNameSet + 48
        0x0000060a:    2802        .(      CMP      r0,#2
        0x0000060c:    d007        ..      BEQ      0x61e ; OSEventNameSet + 50
        0x0000060e:    2803        .(      CMP      r0,#3
        0x00000610:    d002        ..      BEQ      0x618 ; OSEventNameSet + 44
        0x00000612:    2804        .(      CMP      r0,#4
        0x00000614:    d104        ..      BNE      0x620 ; OSEventNameSet + 52
        0x00000616:    e000        ..      B        0x61a ; OSEventNameSet + 46
        0x00000618:    bf00        ..      NOP      
        0x0000061a:    bf00        ..      NOP      
        0x0000061c:    bf00        ..      NOP      
        0x0000061e:    e002        ..      B        0x626 ; OSEventNameSet + 58
        0x00000620:    2001        .       MOVS     r0,#1
        0x00000622:    7020         p      STRB     r0,[r4,#0]
        0x00000624:    e7ed        ..      B        0x602 ; OSEventNameSet + 22
        0x00000626:    bf00        ..      NOP      
        0x00000628:    f7fffd76    ..v.    BL       OS_CPU_SR_Save ; 0x118
        0x0000062c:    4607        .F      MOV      r7,r0
        0x0000062e:    612e        .a      STR      r6,[r5,#0x10]
        0x00000630:    4638        8F      MOV      r0,r7
        0x00000632:    f7fffd75    ..u.    BL       OS_CPU_SR_Restore ; 0x120
        0x00000636:    2000        .       MOVS     r0,#0
        0x00000638:    7020         p      STRB     r0,[r4,#0]
        0x0000063a:    bf00        ..      NOP      
        0x0000063c:    e7e1        ..      B        0x602 ; OSEventNameSet + 22
    $d
        0x0000063e:    0000        ..      DCW    0
        0x00000640:    20000035    5..     DCD    536870965
    $t
    i.OSInit
    OSInit
        0x00000644:    b510        ..      PUSH     {r4,lr}
        0x00000646:    f000f817    ....    BL       OSInitHookBegin ; 0x678
        0x0000064a:    f001f899    ....    BL       OS_InitMisc ; 0x1780
        0x0000064e:    f001f8c1    ....    BL       OS_InitRdyList ; 0x17d4
        0x00000652:    f001f8e1    ....    BL       OS_InitTCBList ; 0x1818
        0x00000656:    f001f867    ..g.    BL       OS_InitEventList ; 0x1728
        0x0000065a:    f001f825    ..%.    BL       OS_FlagInit ; 0x16a8
        0x0000065e:    f001f96b    ..k.    BL       OS_MemInit ; 0x1938
        0x00000662:    f001f90f    ....    BL       OS_InitTaskIdle ; 0x1884
        0x00000666:    f001f935    ..5.    BL       OS_InitTaskStat ; 0x18d4
        0x0000066a:    f000fddd    ....    BL       OSTmr_Init ; 0x1228
        0x0000066e:    f000f819    ....    BL       OSInitHookEnd ; 0x6a4
        0x00000672:    f7ffff0d    ....    BL       OSDebugInit ; 0x490
        0x00000676:    bd10        ..      POP      {r4,pc}
    i.OSInitHookBegin
    OSInitHookBegin
        0x00000678:    4807        .H      LDR      r0,[pc,#28] ; [0x698] = 0x2000090c
        0x0000067a:    2140        @!      MOVS     r1,#0x40
        0x0000067c:    e002        ..      B        0x684 ; OSInitHookBegin + 12
        0x0000067e:    1e49        I.      SUBS     r1,r1,#1
        0x00000680:    2200        ."      MOVS     r2,#0
        0x00000682:    c004        ..      STM      r0!,{r2}
        0x00000684:    2900        .)      CMP      r1,#0
        0x00000686:    d1fa        ..      BNE      0x67e ; OSInitHookBegin + 6
        0x00000688:    4a03        .J      LDR      r2,[pc,#12] ; [0x698] = 0x2000090c
        0x0000068a:    32fc        .2      ADDS     r2,r2,#0xfc
        0x0000068c:    4b03        .K      LDR      r3,[pc,#12] ; [0x69c] = 0x20000074
        0x0000068e:    601a        .`      STR      r2,[r3,#0]
        0x00000690:    2200        ."      MOVS     r2,#0
        0x00000692:    4b03        .K      LDR      r3,[pc,#12] ; [0x6a0] = 0x20000078
        0x00000694:    801a        ..      STRH     r2,[r3,#0]
        0x00000696:    4770        pG      BX       lr
    $d
        0x00000698:    2000090c    ...     DCD    536873228
        0x0000069c:    20000074    t..     DCD    536871028
        0x000006a0:    20000078    x..     DCD    536871032
    $t
    i.OSInitHookEnd
    OSInitHookEnd
        0x000006a4:    4770        pG      BX       lr
        0x000006a6:    0000        ..      MOVS     r0,r0
    i.OSIntExit
    OSIntExit
        0x000006a8:    b510        ..      PUSH     {r4,lr}
        0x000006aa:    2400        .$      MOVS     r4,#0
        0x000006ac:    481c        .H      LDR      r0,[pc,#112] ; [0x720] = 0x2000003c
        0x000006ae:    7800        .x      LDRB     r0,[r0,#0]
        0x000006b0:    2801        .(      CMP      r0,#1
        0x000006b2:    d133        3.      BNE      0x71c ; OSIntExit + 116
        0x000006b4:    f7fffd30    ..0.    BL       OS_CPU_SR_Save ; 0x118
        0x000006b8:    4604        .F      MOV      r4,r0
        0x000006ba:    481a        .H      LDR      r0,[pc,#104] ; [0x724] = 0x20000035
        0x000006bc:    7800        .x      LDRB     r0,[r0,#0]
        0x000006be:    2800        .(      CMP      r0,#0
        0x000006c0:    d004        ..      BEQ      0x6cc ; OSIntExit + 36
        0x000006c2:    4818        .H      LDR      r0,[pc,#96] ; [0x724] = 0x20000035
        0x000006c4:    7800        .x      LDRB     r0,[r0,#0]
        0x000006c6:    1e40        @.      SUBS     r0,r0,#1
        0x000006c8:    4916        .I      LDR      r1,[pc,#88] ; [0x724] = 0x20000035
        0x000006ca:    7008        .p      STRB     r0,[r1,#0]
        0x000006cc:    4815        .H      LDR      r0,[pc,#84] ; [0x724] = 0x20000035
        0x000006ce:    7800        .x      LDRB     r0,[r0,#0]
        0x000006d0:    2800        .(      CMP      r0,#0
        0x000006d2:    d120         .      BNE      0x716 ; OSIntExit + 110
        0x000006d4:    4814        .H      LDR      r0,[pc,#80] ; [0x728] = 0x20000036
        0x000006d6:    7800        .x      LDRB     r0,[r0,#0]
        0x000006d8:    2800        .(      CMP      r0,#0
        0x000006da:    d11c        ..      BNE      0x716 ; OSIntExit + 110
        0x000006dc:    f001f992    ....    BL       OS_SchedNew ; 0x1a04
        0x000006e0:    4812        .H      LDR      r0,[pc,#72] ; [0x72c] = 0x20000038
        0x000006e2:    7800        .x      LDRB     r0,[r0,#0]
        0x000006e4:    0080        ..      LSLS     r0,r0,#2
        0x000006e6:    4912        .I      LDR      r1,[pc,#72] ; [0x730] = 0x20000394
        0x000006e8:    5808        .X      LDR      r0,[r1,r0]
        0x000006ea:    4912        .I      LDR      r1,[pc,#72] ; [0x734] = 0x2000004c
        0x000006ec:    6008        .`      STR      r0,[r1,#0]
        0x000006ee:    480f        .H      LDR      r0,[pc,#60] ; [0x72c] = 0x20000038
        0x000006f0:    7800        .x      LDRB     r0,[r0,#0]
        0x000006f2:    4911        .I      LDR      r1,[pc,#68] ; [0x738] = 0x20000037
        0x000006f4:    7809        .x      LDRB     r1,[r1,#0]
        0x000006f6:    4288        .B      CMP      r0,r1
        0x000006f8:    d00d        ..      BEQ      0x716 ; OSIntExit + 110
        0x000006fa:    480e        .H      LDR      r0,[pc,#56] ; [0x734] = 0x2000004c
        0x000006fc:    6800        .h      LDR      r0,[r0,#0]
        0x000006fe:    6bc0        .k      LDR      r0,[r0,#0x3c]
        0x00000700:    1c40        @.      ADDS     r0,r0,#1
        0x00000702:    490c        .I      LDR      r1,[pc,#48] ; [0x734] = 0x2000004c
        0x00000704:    6809        .h      LDR      r1,[r1,#0]
        0x00000706:    63c8        .c      STR      r0,[r1,#0x3c]
        0x00000708:    480c        .H      LDR      r0,[pc,#48] ; [0x73c] = 0x2000001c
        0x0000070a:    6800        .h      LDR      r0,[r0,#0]
        0x0000070c:    1c40        @.      ADDS     r0,r0,#1
        0x0000070e:    490b        .I      LDR      r1,[pc,#44] ; [0x73c] = 0x2000001c
        0x00000710:    6008        .`      STR      r0,[r1,#0]
        0x00000712:    f7fffd1e    ....    BL       OSIntCtxSw ; 0x152
        0x00000716:    4620         F      MOV      r0,r4
        0x00000718:    f7fffd02    ....    BL       OS_CPU_SR_Restore ; 0x120
        0x0000071c:    bd10        ..      POP      {r4,pc}
    $d
        0x0000071e:    0000        ..      DCW    0
        0x00000720:    2000003c    <..     DCD    536870972
        0x00000724:    20000035    5..     DCD    536870965
        0x00000728:    20000036    6..     DCD    536870966
        0x0000072c:    20000038    8..     DCD    536870968
        0x00000730:    20000394    ...     DCD    536871828
        0x00000734:    2000004c    L..     DCD    536870988
        0x00000738:    20000037    7..     DCD    536870967
        0x0000073c:    2000001c    ...     DCD    536870940
    $t
    i.OSMboxCreate
    OSMboxCreate
        0x00000740:    b570        p.      PUSH     {r4-r6,lr}
        0x00000742:    4605        .F      MOV      r5,r0
        0x00000744:    2600        .&      MOVS     r6,#0
        0x00000746:    4812        .H      LDR      r0,[pc,#72] ; [0x790] = 0x20000035
        0x00000748:    7800        .x      LDRB     r0,[r0,#0]
        0x0000074a:    2800        .(      CMP      r0,#0
        0x0000074c:    d001        ..      BEQ      0x752 ; OSMboxCreate + 18
        0x0000074e:    2000        .       MOVS     r0,#0
        0x00000750:    bd70        p.      POP      {r4-r6,pc}
        0x00000752:    f7fffce1    ....    BL       OS_CPU_SR_Save ; 0x118
        0x00000756:    4606        .F      MOV      r6,r0
        0x00000758:    480e        .H      LDR      r0,[pc,#56] ; [0x794] = 0x20000020
        0x0000075a:    6804        .h      LDR      r4,[r0,#0]
        0x0000075c:    6800        .h      LDR      r0,[r0,#0]
        0x0000075e:    2800        .(      CMP      r0,#0
        0x00000760:    d004        ..      BEQ      0x76c ; OSMboxCreate + 44
        0x00000762:    480c        .H      LDR      r0,[pc,#48] ; [0x794] = 0x20000020
        0x00000764:    6800        .h      LDR      r0,[r0,#0]
        0x00000766:    6840        @h      LDR      r0,[r0,#4]
        0x00000768:    490a        .I      LDR      r1,[pc,#40] ; [0x794] = 0x20000020
        0x0000076a:    6008        .`      STR      r0,[r1,#0]
        0x0000076c:    4630        0F      MOV      r0,r6
        0x0000076e:    f7fffcd7    ....    BL       OS_CPU_SR_Restore ; 0x120
        0x00000772:    2c00        .,      CMP      r4,#0
        0x00000774:    d009        ..      BEQ      0x78a ; OSMboxCreate + 74
        0x00000776:    2001        .       MOVS     r0,#1
        0x00000778:    7020         p      STRB     r0,[r4,#0]
        0x0000077a:    2000        .       MOVS     r0,#0
        0x0000077c:    8120         .      STRH     r0,[r4,#8]
        0x0000077e:    6065        e`      STR      r5,[r4,#4]
        0x00000780:    a005        ..      ADR      r0,{pc}+0x18 ; 0x798
        0x00000782:    6120         a      STR      r0,[r4,#0x10]
        0x00000784:    4620         F      MOV      r0,r4
        0x00000786:    f000ff81    ....    BL       OS_EventWaitListInit ; 0x168c
        0x0000078a:    4620         F      MOV      r0,r4
        0x0000078c:    e7e0        ..      B        0x750 ; OSMboxCreate + 16
    $d
        0x0000078e:    0000        ..      DCW    0
        0x00000790:    20000035    5..     DCD    536870965
        0x00000794:    20000020     ..     DCD    536870944
        0x00000798:    0000003f    ?...    DCD    63
    $t
    i.OSMboxPend
    OSMboxPend
        0x0000079c:    b5f8        ..      PUSH     {r3-r7,lr}
        0x0000079e:    4605        .F      MOV      r5,r0
        0x000007a0:    460f        .F      MOV      r7,r1
        0x000007a2:    4614        .F      MOV      r4,r2
        0x000007a4:    2000        .       MOVS     r0,#0
        0x000007a6:    9000        ..      STR      r0,[sp,#0]
        0x000007a8:    7828        (x      LDRB     r0,[r5,#0]
        0x000007aa:    2801        .(      CMP      r0,#1
        0x000007ac:    d003        ..      BEQ      0x7b6 ; OSMboxPend + 26
        0x000007ae:    2001        .       MOVS     r0,#1
        0x000007b0:    7020         p      STRB     r0,[r4,#0]
        0x000007b2:    2000        .       MOVS     r0,#0
        0x000007b4:    bdf8        ..      POP      {r3-r7,pc}
        0x000007b6:    483a        :H      LDR      r0,[pc,#232] ; [0x8a0] = 0x20000035
        0x000007b8:    7800        .x      LDRB     r0,[r0,#0]
        0x000007ba:    2800        .(      CMP      r0,#0
        0x000007bc:    d003        ..      BEQ      0x7c6 ; OSMboxPend + 42
        0x000007be:    2002        .       MOVS     r0,#2
        0x000007c0:    7020         p      STRB     r0,[r4,#0]
        0x000007c2:    2000        .       MOVS     r0,#0
        0x000007c4:    e7f6        ..      B        0x7b4 ; OSMboxPend + 24
        0x000007c6:    4837        7H      LDR      r0,[pc,#220] ; [0x8a4] = 0x20000036
        0x000007c8:    7800        .x      LDRB     r0,[r0,#0]
        0x000007ca:    2800        .(      CMP      r0,#0
        0x000007cc:    d003        ..      BEQ      0x7d6 ; OSMboxPend + 58
        0x000007ce:    200d        .       MOVS     r0,#0xd
        0x000007d0:    7020         p      STRB     r0,[r4,#0]
        0x000007d2:    2000        .       MOVS     r0,#0
        0x000007d4:    e7ee        ..      B        0x7b4 ; OSMboxPend + 24
        0x000007d6:    f7fffc9f    ....    BL       OS_CPU_SR_Save ; 0x118
        0x000007da:    9000        ..      STR      r0,[sp,#0]
        0x000007dc:    686e        nh      LDR      r6,[r5,#4]
        0x000007de:    2e00        ..      CMP      r6,#0
        0x000007e0:    d008        ..      BEQ      0x7f4 ; OSMboxPend + 88
        0x000007e2:    2000        .       MOVS     r0,#0
        0x000007e4:    6068        h`      STR      r0,[r5,#4]
        0x000007e6:    9800        ..      LDR      r0,[sp,#0]
        0x000007e8:    f7fffc9a    ....    BL       OS_CPU_SR_Restore ; 0x120
        0x000007ec:    2000        .       MOVS     r0,#0
        0x000007ee:    7020         p      STRB     r0,[r4,#0]
        0x000007f0:    4630        0F      MOV      r0,r6
        0x000007f2:    e7df        ..      B        0x7b4 ; OSMboxPend + 24
        0x000007f4:    482c        ,H      LDR      r0,[pc,#176] ; [0x8a8] = 0x20000044
        0x000007f6:    6800        .h      LDR      r0,[r0,#0]
        0x000007f8:    3020         0      ADDS     r0,r0,#0x20
        0x000007fa:    7d00        .}      LDRB     r0,[r0,#0x14]
        0x000007fc:    2102        .!      MOVS     r1,#2
        0x000007fe:    4308        .C      ORRS     r0,r0,r1
        0x00000800:    4929        )I      LDR      r1,[pc,#164] ; [0x8a8] = 0x20000044
        0x00000802:    6809        .h      LDR      r1,[r1,#0]
        0x00000804:    3120         1      ADDS     r1,r1,#0x20
        0x00000806:    7508        .u      STRB     r0,[r1,#0x14]
        0x00000808:    2100        .!      MOVS     r1,#0
        0x0000080a:    4827        'H      LDR      r0,[pc,#156] ; [0x8a8] = 0x20000044
        0x0000080c:    6800        .h      LDR      r0,[r0,#0]
        0x0000080e:    3020         0      ADDS     r0,r0,#0x20
        0x00000810:    7541        Au      STRB     r1,[r0,#0x15]
        0x00000812:    4825        %H      LDR      r0,[pc,#148] ; [0x8a8] = 0x20000044
        0x00000814:    6800        .h      LDR      r0,[r0,#0]
        0x00000816:    6307        .c      STR      r7,[r0,#0x30]
        0x00000818:    4628        (F      MOV      r0,r5
        0x0000081a:    f000fef7    ....    BL       OS_EventTaskWait ; 0x160c
        0x0000081e:    9800        ..      LDR      r0,[sp,#0]
        0x00000820:    f7fffc7e    ..~.    BL       OS_CPU_SR_Restore ; 0x120
        0x00000824:    f001f8b2    ....    BL       OS_Sched ; 0x198c
        0x00000828:    f7fffc76    ..v.    BL       OS_CPU_SR_Save ; 0x118
        0x0000082c:    9000        ..      STR      r0,[sp,#0]
        0x0000082e:    481e        .H      LDR      r0,[pc,#120] ; [0x8a8] = 0x20000044
        0x00000830:    6800        .h      LDR      r0,[r0,#0]
        0x00000832:    3020         0      ADDS     r0,r0,#0x20
        0x00000834:    7d40        @}      LDRB     r0,[r0,#0x15]
        0x00000836:    2800        .(      CMP      r0,#0
        0x00000838:    d004        ..      BEQ      0x844 ; OSMboxPend + 168
        0x0000083a:    2801        .(      CMP      r0,#1
        0x0000083c:    d00d        ..      BEQ      0x85a ; OSMboxPend + 190
        0x0000083e:    2802        .(      CMP      r0,#2
        0x00000840:    d10a        ..      BNE      0x858 ; OSMboxPend + 188
        0x00000842:    e005        ..      B        0x850 ; OSMboxPend + 180
        0x00000844:    4818        .H      LDR      r0,[pc,#96] ; [0x8a8] = 0x20000044
        0x00000846:    6800        .h      LDR      r0,[r0,#0]
        0x00000848:    6a46        Fj      LDR      r6,[r0,#0x24]
        0x0000084a:    2000        .       MOVS     r0,#0
        0x0000084c:    7020         p      STRB     r0,[r4,#0]
        0x0000084e:    e00d        ..      B        0x86c ; OSMboxPend + 208
        0x00000850:    2600        .&      MOVS     r6,#0
        0x00000852:    200e        .       MOVS     r0,#0xe
        0x00000854:    7020         p      STRB     r0,[r4,#0]
        0x00000856:    e009        ..      B        0x86c ; OSMboxPend + 208
        0x00000858:    bf00        ..      NOP      
        0x0000085a:    4629        )F      MOV      r1,r5
        0x0000085c:    4812        .H      LDR      r0,[pc,#72] ; [0x8a8] = 0x20000044
        0x0000085e:    6800        .h      LDR      r0,[r0,#0]
        0x00000860:    f000fe9e    ....    BL       OS_EventTaskRemove ; 0x15a0
        0x00000864:    2600        .&      MOVS     r6,#0
        0x00000866:    200a        .       MOVS     r0,#0xa
        0x00000868:    7020         p      STRB     r0,[r4,#0]
        0x0000086a:    bf00        ..      NOP      
        0x0000086c:    bf00        ..      NOP      
        0x0000086e:    2100        .!      MOVS     r1,#0
        0x00000870:    480d        .H      LDR      r0,[pc,#52] ; [0x8a8] = 0x20000044
        0x00000872:    6800        .h      LDR      r0,[r0,#0]
        0x00000874:    3020         0      ADDS     r0,r0,#0x20
        0x00000876:    7501        .u      STRB     r1,[r0,#0x14]
        0x00000878:    480b        .H      LDR      r0,[pc,#44] ; [0x8a8] = 0x20000044
        0x0000087a:    6800        .h      LDR      r0,[r0,#0]
        0x0000087c:    3020         0      ADDS     r0,r0,#0x20
        0x0000087e:    7541        Au      STRB     r1,[r0,#0x15]
        0x00000880:    2000        .       MOVS     r0,#0
        0x00000882:    4909        .I      LDR      r1,[pc,#36] ; [0x8a8] = 0x20000044
        0x00000884:    6809        .h      LDR      r1,[r1,#0]
        0x00000886:    61c8        .a      STR      r0,[r1,#0x1c]
        0x00000888:    4907        .I      LDR      r1,[pc,#28] ; [0x8a8] = 0x20000044
        0x0000088a:    6809        .h      LDR      r1,[r1,#0]
        0x0000088c:    6208        .b      STR      r0,[r1,#0x20]
        0x0000088e:    4906        .I      LDR      r1,[pc,#24] ; [0x8a8] = 0x20000044
        0x00000890:    6809        .h      LDR      r1,[r1,#0]
        0x00000892:    6248        Hb      STR      r0,[r1,#0x24]
        0x00000894:    9800        ..      LDR      r0,[sp,#0]
        0x00000896:    f7fffc43    ..C.    BL       OS_CPU_SR_Restore ; 0x120
        0x0000089a:    4630        0F      MOV      r0,r6
        0x0000089c:    e78a        ..      B        0x7b4 ; OSMboxPend + 24
    $d
        0x0000089e:    0000        ..      DCW    0
        0x000008a0:    20000035    5..     DCD    536870965
        0x000008a4:    20000036    6..     DCD    536870966
        0x000008a8:    20000044    D..     DCD    536870980
    $t
    i.OSMboxPost
    OSMboxPost
        0x000008ac:    b570        p.      PUSH     {r4-r6,lr}
        0x000008ae:    4604        .F      MOV      r4,r0
        0x000008b0:    460d        .F      MOV      r5,r1
        0x000008b2:    2600        .&      MOVS     r6,#0
        0x000008b4:    7820         x      LDRB     r0,[r4,#0]
        0x000008b6:    2801        .(      CMP      r0,#1
        0x000008b8:    d001        ..      BEQ      0x8be ; OSMboxPost + 18
        0x000008ba:    2001        .       MOVS     r0,#1
        0x000008bc:    bd70        p.      POP      {r4-r6,pc}
        0x000008be:    f7fffc2b    ..+.    BL       OS_CPU_SR_Save ; 0x118
        0x000008c2:    4606        .F      MOV      r6,r0
        0x000008c4:    7aa0        .z      LDRB     r0,[r4,#0xa]
        0x000008c6:    2800        .(      CMP      r0,#0
        0x000008c8:    d00c        ..      BEQ      0x8e4 ; OSMboxPost + 56
        0x000008ca:    2300        .#      MOVS     r3,#0
        0x000008cc:    2202        ."      MOVS     r2,#2
        0x000008ce:    4629        )F      MOV      r1,r5
        0x000008d0:    4620         F      MOV      r0,r4
        0x000008d2:    f000fe19    ....    BL       OS_EventTaskRdy ; 0x1508
        0x000008d6:    4630        0F      MOV      r0,r6
        0x000008d8:    f7fffc22    ..".    BL       OS_CPU_SR_Restore ; 0x120
        0x000008dc:    f001f856    ..V.    BL       OS_Sched ; 0x198c
        0x000008e0:    2000        .       MOVS     r0,#0
        0x000008e2:    e7eb        ..      B        0x8bc ; OSMboxPost + 16
        0x000008e4:    6860        `h      LDR      r0,[r4,#4]
        0x000008e6:    2800        .(      CMP      r0,#0
        0x000008e8:    d004        ..      BEQ      0x8f4 ; OSMboxPost + 72
        0x000008ea:    4630        0F      MOV      r0,r6
        0x000008ec:    f7fffc18    ....    BL       OS_CPU_SR_Restore ; 0x120
        0x000008f0:    2014        .       MOVS     r0,#0x14
        0x000008f2:    e7e3        ..      B        0x8bc ; OSMboxPost + 16
        0x000008f4:    6065        e`      STR      r5,[r4,#4]
        0x000008f6:    4630        0F      MOV      r0,r6
        0x000008f8:    f7fffc12    ....    BL       OS_CPU_SR_Restore ; 0x120
        0x000008fc:    2000        .       MOVS     r0,#0
        0x000008fe:    e7dd        ..      B        0x8bc ; OSMboxPost + 16
    i.OSSchedLock
    OSSchedLock
        0x00000900:    b510        ..      PUSH     {r4,lr}
        0x00000902:    2400        .$      MOVS     r4,#0
        0x00000904:    480b        .H      LDR      r0,[pc,#44] ; [0x934] = 0x2000003c
        0x00000906:    7800        .x      LDRB     r0,[r0,#0]
        0x00000908:    2801        .(      CMP      r0,#1
        0x0000090a:    d112        ..      BNE      0x932 ; OSSchedLock + 50
        0x0000090c:    f7fffc04    ....    BL       OS_CPU_SR_Save ; 0x118
        0x00000910:    4604        .F      MOV      r4,r0
        0x00000912:    4809        .H      LDR      r0,[pc,#36] ; [0x938] = 0x20000035
        0x00000914:    7800        .x      LDRB     r0,[r0,#0]
        0x00000916:    2800        .(      CMP      r0,#0
        0x00000918:    d108        ..      BNE      0x92c ; OSSchedLock + 44
        0x0000091a:    4808        .H      LDR      r0,[pc,#32] ; [0x93c] = 0x20000036
        0x0000091c:    7800        .x      LDRB     r0,[r0,#0]
        0x0000091e:    28ff        .(      CMP      r0,#0xff
        0x00000920:    d204        ..      BCS      0x92c ; OSSchedLock + 44
        0x00000922:    4806        .H      LDR      r0,[pc,#24] ; [0x93c] = 0x20000036
        0x00000924:    7800        .x      LDRB     r0,[r0,#0]
        0x00000926:    1c40        @.      ADDS     r0,r0,#1
        0x00000928:    4904        .I      LDR      r1,[pc,#16] ; [0x93c] = 0x20000036
        0x0000092a:    7008        .p      STRB     r0,[r1,#0]
        0x0000092c:    4620         F      MOV      r0,r4
        0x0000092e:    f7fffbf7    ....    BL       OS_CPU_SR_Restore ; 0x120
        0x00000932:    bd10        ..      POP      {r4,pc}
    $d
        0x00000934:    2000003c    <..     DCD    536870972
        0x00000938:    20000035    5..     DCD    536870965
        0x0000093c:    20000036    6..     DCD    536870966
    $t
    i.OSSchedUnlock
    OSSchedUnlock
        0x00000940:    b510        ..      PUSH     {r4,lr}
        0x00000942:    2400        .$      MOVS     r4,#0
        0x00000944:    4814        .H      LDR      r0,[pc,#80] ; [0x998] = 0x2000003c
        0x00000946:    7800        .x      LDRB     r0,[r0,#0]
        0x00000948:    2801        .(      CMP      r0,#1
        0x0000094a:    d124        $.      BNE      0x996 ; OSSchedUnlock + 86
        0x0000094c:    f7fffbe4    ....    BL       OS_CPU_SR_Save ; 0x118
        0x00000950:    4604        .F      MOV      r4,r0
        0x00000952:    4812        .H      LDR      r0,[pc,#72] ; [0x99c] = 0x20000036
        0x00000954:    7800        .x      LDRB     r0,[r0,#0]
        0x00000956:    2800        .(      CMP      r0,#0
        0x00000958:    d01a        ..      BEQ      0x990 ; OSSchedUnlock + 80
        0x0000095a:    4810        .H      LDR      r0,[pc,#64] ; [0x99c] = 0x20000036
        0x0000095c:    7800        .x      LDRB     r0,[r0,#0]
        0x0000095e:    1e40        @.      SUBS     r0,r0,#1
        0x00000960:    490e        .I      LDR      r1,[pc,#56] ; [0x99c] = 0x20000036
        0x00000962:    7008        .p      STRB     r0,[r1,#0]
        0x00000964:    4608        .F      MOV      r0,r1
        0x00000966:    7800        .x      LDRB     r0,[r0,#0]
        0x00000968:    2800        .(      CMP      r0,#0
        0x0000096a:    d10d        ..      BNE      0x988 ; OSSchedUnlock + 72
        0x0000096c:    480c        .H      LDR      r0,[pc,#48] ; [0x9a0] = 0x20000035
        0x0000096e:    7800        .x      LDRB     r0,[r0,#0]
        0x00000970:    2800        .(      CMP      r0,#0
        0x00000972:    d105        ..      BNE      0x980 ; OSSchedUnlock + 64
        0x00000974:    4620         F      MOV      r0,r4
        0x00000976:    f7fffbd3    ....    BL       OS_CPU_SR_Restore ; 0x120
        0x0000097a:    f001f807    ....    BL       OS_Sched ; 0x198c
        0x0000097e:    e00a        ..      B        0x996 ; OSSchedUnlock + 86
        0x00000980:    4620         F      MOV      r0,r4
        0x00000982:    f7fffbcd    ....    BL       OS_CPU_SR_Restore ; 0x120
        0x00000986:    e006        ..      B        0x996 ; OSSchedUnlock + 86
        0x00000988:    4620         F      MOV      r0,r4
        0x0000098a:    f7fffbc9    ....    BL       OS_CPU_SR_Restore ; 0x120
        0x0000098e:    e002        ..      B        0x996 ; OSSchedUnlock + 86
        0x00000990:    4620         F      MOV      r0,r4
        0x00000992:    f7fffbc5    ....    BL       OS_CPU_SR_Restore ; 0x120
        0x00000996:    bd10        ..      POP      {r4,pc}
    $d
        0x00000998:    2000003c    <..     DCD    536870972
        0x0000099c:    20000036    6..     DCD    536870966
        0x000009a0:    20000035    5..     DCD    536870965
    $t
    i.OSSemCreate
    OSSemCreate
        0x000009a4:    b570        p.      PUSH     {r4-r6,lr}
        0x000009a6:    4605        .F      MOV      r5,r0
        0x000009a8:    2600        .&      MOVS     r6,#0
        0x000009aa:    4812        .H      LDR      r0,[pc,#72] ; [0x9f4] = 0x20000035
        0x000009ac:    7800        .x      LDRB     r0,[r0,#0]
        0x000009ae:    2800        .(      CMP      r0,#0
        0x000009b0:    d001        ..      BEQ      0x9b6 ; OSSemCreate + 18
        0x000009b2:    2000        .       MOVS     r0,#0
        0x000009b4:    bd70        p.      POP      {r4-r6,pc}
        0x000009b6:    f7fffbaf    ....    BL       OS_CPU_SR_Save ; 0x118
        0x000009ba:    4606        .F      MOV      r6,r0
        0x000009bc:    480e        .H      LDR      r0,[pc,#56] ; [0x9f8] = 0x20000020
        0x000009be:    6804        .h      LDR      r4,[r0,#0]
        0x000009c0:    6800        .h      LDR      r0,[r0,#0]
        0x000009c2:    2800        .(      CMP      r0,#0
        0x000009c4:    d004        ..      BEQ      0x9d0 ; OSSemCreate + 44
        0x000009c6:    480c        .H      LDR      r0,[pc,#48] ; [0x9f8] = 0x20000020
        0x000009c8:    6800        .h      LDR      r0,[r0,#0]
        0x000009ca:    6840        @h      LDR      r0,[r0,#4]
        0x000009cc:    490a        .I      LDR      r1,[pc,#40] ; [0x9f8] = 0x20000020
        0x000009ce:    6008        .`      STR      r0,[r1,#0]
        0x000009d0:    4630        0F      MOV      r0,r6
        0x000009d2:    f7fffba5    ....    BL       OS_CPU_SR_Restore ; 0x120
        0x000009d6:    2c00        .,      CMP      r4,#0
        0x000009d8:    d009        ..      BEQ      0x9ee ; OSSemCreate + 74
        0x000009da:    2003        .       MOVS     r0,#3
        0x000009dc:    7020         p      STRB     r0,[r4,#0]
        0x000009de:    8125        %.      STRH     r5,[r4,#8]
        0x000009e0:    2000        .       MOVS     r0,#0
        0x000009e2:    6060        ``      STR      r0,[r4,#4]
        0x000009e4:    a005        ..      ADR      r0,{pc}+0x18 ; 0x9fc
        0x000009e6:    6120         a      STR      r0,[r4,#0x10]
        0x000009e8:    4620         F      MOV      r0,r4
        0x000009ea:    f000fe4f    ..O.    BL       OS_EventWaitListInit ; 0x168c
        0x000009ee:    4620         F      MOV      r0,r4
        0x000009f0:    e7e0        ..      B        0x9b4 ; OSSemCreate + 16
    $d
        0x000009f2:    0000        ..      DCW    0
        0x000009f4:    20000035    5..     DCD    536870965
        0x000009f8:    20000020     ..     DCD    536870944
        0x000009fc:    0000003f    ?...    DCD    63
    $t
    i.OSSemPend
    OSSemPend
        0x00000a00:    b5f8        ..      PUSH     {r3-r7,lr}
        0x00000a02:    4605        .F      MOV      r5,r0
        0x00000a04:    460e        .F      MOV      r6,r1
        0x00000a06:    4614        .F      MOV      r4,r2
        0x00000a08:    2700        .'      MOVS     r7,#0
        0x00000a0a:    7828        (x      LDRB     r0,[r5,#0]
        0x00000a0c:    2803        .(      CMP      r0,#3
        0x00000a0e:    d002        ..      BEQ      0xa16 ; OSSemPend + 22
        0x00000a10:    2001        .       MOVS     r0,#1
        0x00000a12:    7020         p      STRB     r0,[r4,#0]
        0x00000a14:    bdf8        ..      POP      {r3-r7,pc}
        0x00000a16:    4835        5H      LDR      r0,[pc,#212] ; [0xaec] = 0x20000035
        0x00000a18:    7800        .x      LDRB     r0,[r0,#0]
        0x00000a1a:    2800        .(      CMP      r0,#0
        0x00000a1c:    d002        ..      BEQ      0xa24 ; OSSemPend + 36
        0x00000a1e:    2002        .       MOVS     r0,#2
        0x00000a20:    7020         p      STRB     r0,[r4,#0]
        0x00000a22:    e7f7        ..      B        0xa14 ; OSSemPend + 20
        0x00000a24:    4832        2H      LDR      r0,[pc,#200] ; [0xaf0] = 0x20000036
        0x00000a26:    7800        .x      LDRB     r0,[r0,#0]
        0x00000a28:    2800        .(      CMP      r0,#0
        0x00000a2a:    d002        ..      BEQ      0xa32 ; OSSemPend + 50
        0x00000a2c:    200d        .       MOVS     r0,#0xd
        0x00000a2e:    7020         p      STRB     r0,[r4,#0]
        0x00000a30:    e7f0        ..      B        0xa14 ; OSSemPend + 20
        0x00000a32:    f7fffb71    ..q.    BL       OS_CPU_SR_Save ; 0x118
        0x00000a36:    4607        .F      MOV      r7,r0
        0x00000a38:    8928        (.      LDRH     r0,[r5,#8]
        0x00000a3a:    2800        .(      CMP      r0,#0
        0x00000a3c:    d008        ..      BEQ      0xa50 ; OSSemPend + 80
        0x00000a3e:    8928        (.      LDRH     r0,[r5,#8]
        0x00000a40:    1e40        @.      SUBS     r0,r0,#1
        0x00000a42:    8128        (.      STRH     r0,[r5,#8]
        0x00000a44:    4638        8F      MOV      r0,r7
        0x00000a46:    f7fffb6b    ..k.    BL       OS_CPU_SR_Restore ; 0x120
        0x00000a4a:    2000        .       MOVS     r0,#0
        0x00000a4c:    7020         p      STRB     r0,[r4,#0]
        0x00000a4e:    e7e1        ..      B        0xa14 ; OSSemPend + 20
        0x00000a50:    4828        (H      LDR      r0,[pc,#160] ; [0xaf4] = 0x20000044
        0x00000a52:    6800        .h      LDR      r0,[r0,#0]
        0x00000a54:    3020         0      ADDS     r0,r0,#0x20
        0x00000a56:    7d00        .}      LDRB     r0,[r0,#0x14]
        0x00000a58:    2101        .!      MOVS     r1,#1
        0x00000a5a:    4308        .C      ORRS     r0,r0,r1
        0x00000a5c:    4925        %I      LDR      r1,[pc,#148] ; [0xaf4] = 0x20000044
        0x00000a5e:    6809        .h      LDR      r1,[r1,#0]
        0x00000a60:    3120         1      ADDS     r1,r1,#0x20
        0x00000a62:    7508        .u      STRB     r0,[r1,#0x14]
        0x00000a64:    2100        .!      MOVS     r1,#0
        0x00000a66:    4823        #H      LDR      r0,[pc,#140] ; [0xaf4] = 0x20000044
        0x00000a68:    6800        .h      LDR      r0,[r0,#0]
        0x00000a6a:    3020         0      ADDS     r0,r0,#0x20
        0x00000a6c:    7541        Au      STRB     r1,[r0,#0x15]
        0x00000a6e:    4821        !H      LDR      r0,[pc,#132] ; [0xaf4] = 0x20000044
        0x00000a70:    6800        .h      LDR      r0,[r0,#0]
        0x00000a72:    6306        .c      STR      r6,[r0,#0x30]
        0x00000a74:    4628        (F      MOV      r0,r5
        0x00000a76:    f000fdc9    ....    BL       OS_EventTaskWait ; 0x160c
        0x00000a7a:    4638        8F      MOV      r0,r7
        0x00000a7c:    f7fffb50    ..P.    BL       OS_CPU_SR_Restore ; 0x120
        0x00000a80:    f000ff84    ....    BL       OS_Sched ; 0x198c
        0x00000a84:    f7fffb48    ..H.    BL       OS_CPU_SR_Save ; 0x118
        0x00000a88:    4607        .F      MOV      r7,r0
        0x00000a8a:    481a        .H      LDR      r0,[pc,#104] ; [0xaf4] = 0x20000044
        0x00000a8c:    6800        .h      LDR      r0,[r0,#0]
        0x00000a8e:    3020         0      ADDS     r0,r0,#0x20
        0x00000a90:    7d40        @}      LDRB     r0,[r0,#0x15]
        0x00000a92:    2800        .(      CMP      r0,#0
        0x00000a94:    d004        ..      BEQ      0xaa0 ; OSSemPend + 160
        0x00000a96:    2801        .(      CMP      r0,#1
        0x00000a98:    d009        ..      BEQ      0xaae ; OSSemPend + 174
        0x00000a9a:    2802        .(      CMP      r0,#2
        0x00000a9c:    d106        ..      BNE      0xaac ; OSSemPend + 172
        0x00000a9e:    e002        ..      B        0xaa6 ; OSSemPend + 166
        0x00000aa0:    2000        .       MOVS     r0,#0
        0x00000aa2:    7020         p      STRB     r0,[r4,#0]
        0x00000aa4:    e00b        ..      B        0xabe ; OSSemPend + 190
        0x00000aa6:    200e        .       MOVS     r0,#0xe
        0x00000aa8:    7020         p      STRB     r0,[r4,#0]
        0x00000aaa:    e008        ..      B        0xabe ; OSSemPend + 190
        0x00000aac:    bf00        ..      NOP      
        0x00000aae:    4629        )F      MOV      r1,r5
        0x00000ab0:    4810        .H      LDR      r0,[pc,#64] ; [0xaf4] = 0x20000044
        0x00000ab2:    6800        .h      LDR      r0,[r0,#0]
        0x00000ab4:    f000fd74    ..t.    BL       OS_EventTaskRemove ; 0x15a0
        0x00000ab8:    200a        .       MOVS     r0,#0xa
        0x00000aba:    7020         p      STRB     r0,[r4,#0]
        0x00000abc:    bf00        ..      NOP      
        0x00000abe:    bf00        ..      NOP      
        0x00000ac0:    2100        .!      MOVS     r1,#0
        0x00000ac2:    480c        .H      LDR      r0,[pc,#48] ; [0xaf4] = 0x20000044
        0x00000ac4:    6800        .h      LDR      r0,[r0,#0]
        0x00000ac6:    3020         0      ADDS     r0,r0,#0x20
        0x00000ac8:    7501        .u      STRB     r1,[r0,#0x14]
        0x00000aca:    480a        .H      LDR      r0,[pc,#40] ; [0xaf4] = 0x20000044
        0x00000acc:    6800        .h      LDR      r0,[r0,#0]
        0x00000ace:    3020         0      ADDS     r0,r0,#0x20
        0x00000ad0:    7541        Au      STRB     r1,[r0,#0x15]
        0x00000ad2:    2000        .       MOVS     r0,#0
        0x00000ad4:    4907        .I      LDR      r1,[pc,#28] ; [0xaf4] = 0x20000044
        0x00000ad6:    6809        .h      LDR      r1,[r1,#0]
        0x00000ad8:    61c8        .a      STR      r0,[r1,#0x1c]
        0x00000ada:    4906        .I      LDR      r1,[pc,#24] ; [0xaf4] = 0x20000044
        0x00000adc:    6809        .h      LDR      r1,[r1,#0]
        0x00000ade:    6208        .b      STR      r0,[r1,#0x20]
        0x00000ae0:    4638        8F      MOV      r0,r7
        0x00000ae2:    f7fffb1d    ....    BL       OS_CPU_SR_Restore ; 0x120
        0x00000ae6:    bf00        ..      NOP      
        0x00000ae8:    e794        ..      B        0xa14 ; OSSemPend + 20
    $d
        0x00000aea:    0000        ..      DCW    0
        0x00000aec:    20000035    5..     DCD    536870965
        0x00000af0:    20000036    6..     DCD    536870966
        0x00000af4:    20000044    D..     DCD    536870980
    $t
    i.OSSemPost
    OSSemPost
        0x00000af8:    b570        p.      PUSH     {r4-r6,lr}
        0x00000afa:    4604        .F      MOV      r4,r0
        0x00000afc:    2500        .%      MOVS     r5,#0
        0x00000afe:    7820         x      LDRB     r0,[r4,#0]
        0x00000b00:    2803        .(      CMP      r0,#3
        0x00000b02:    d001        ..      BEQ      0xb08 ; OSSemPost + 16
        0x00000b04:    2001        .       MOVS     r0,#1
        0x00000b06:    bd70        p.      POP      {r4-r6,pc}
        0x00000b08:    f7fffb06    ....    BL       OS_CPU_SR_Save ; 0x118
        0x00000b0c:    4605        .F      MOV      r5,r0
        0x00000b0e:    7aa0        .z      LDRB     r0,[r4,#0xa]
        0x00000b10:    2800        .(      CMP      r0,#0
        0x00000b12:    d00c        ..      BEQ      0xb2e ; OSSemPost + 54
        0x00000b14:    2300        .#      MOVS     r3,#0
        0x00000b16:    2201        ."      MOVS     r2,#1
        0x00000b18:    4619        .F      MOV      r1,r3
        0x00000b1a:    4620         F      MOV      r0,r4
        0x00000b1c:    f000fcf4    ....    BL       OS_EventTaskRdy ; 0x1508
        0x00000b20:    4628        (F      MOV      r0,r5
        0x00000b22:    f7fffafd    ....    BL       OS_CPU_SR_Restore ; 0x120
        0x00000b26:    f000ff31    ..1.    BL       OS_Sched ; 0x198c
        0x00000b2a:    2000        .       MOVS     r0,#0
        0x00000b2c:    e7eb        ..      B        0xb06 ; OSSemPost + 14
        0x00000b2e:    8920         .      LDRH     r0,[r4,#8]
        0x00000b30:    4907        .I      LDR      r1,[pc,#28] ; [0xb50] = 0xffff
        0x00000b32:    4288        .B      CMP      r0,r1
        0x00000b34:    d207        ..      BCS      0xb46 ; OSSemPost + 78
        0x00000b36:    8920         .      LDRH     r0,[r4,#8]
        0x00000b38:    1c40        @.      ADDS     r0,r0,#1
        0x00000b3a:    8120         .      STRH     r0,[r4,#8]
        0x00000b3c:    4628        (F      MOV      r0,r5
        0x00000b3e:    f7fffaef    ....    BL       OS_CPU_SR_Restore ; 0x120
        0x00000b42:    2000        .       MOVS     r0,#0
        0x00000b44:    e7df        ..      B        0xb06 ; OSSemPost + 14
        0x00000b46:    4628        (F      MOV      r0,r5
        0x00000b48:    f7fffaea    ....    BL       OS_CPU_SR_Restore ; 0x120
        0x00000b4c:    2033        3       MOVS     r0,#0x33
        0x00000b4e:    e7da        ..      B        0xb06 ; OSSemPost + 14
    $d
        0x00000b50:    0000ffff    ....    DCD    65535
    $t
    i.OSStart
    OSStart
        0x00000b54:    b510        ..      PUSH     {r4,lr}
        0x00000b56:    480c        .H      LDR      r0,[pc,#48] ; [0xb88] = 0x2000003c
        0x00000b58:    7800        .x      LDRB     r0,[r0,#0]
        0x00000b5a:    2800        .(      CMP      r0,#0
        0x00000b5c:    d112        ..      BNE      0xb84 ; OSStart + 48
        0x00000b5e:    f000ff51    ..Q.    BL       OS_SchedNew ; 0x1a04
        0x00000b62:    480a        .H      LDR      r0,[pc,#40] ; [0xb8c] = 0x20000038
        0x00000b64:    7800        .x      LDRB     r0,[r0,#0]
        0x00000b66:    490a        .I      LDR      r1,[pc,#40] ; [0xb90] = 0x20000037
        0x00000b68:    7008        .p      STRB     r0,[r1,#0]
        0x00000b6a:    4808        .H      LDR      r0,[pc,#32] ; [0xb8c] = 0x20000038
        0x00000b6c:    7800        .x      LDRB     r0,[r0,#0]
        0x00000b6e:    0080        ..      LSLS     r0,r0,#2
        0x00000b70:    4908        .I      LDR      r1,[pc,#32] ; [0xb94] = 0x20000394
        0x00000b72:    5808        .X      LDR      r0,[r1,r0]
        0x00000b74:    4908        .I      LDR      r1,[pc,#32] ; [0xb98] = 0x2000004c
        0x00000b76:    6008        .`      STR      r0,[r1,#0]
        0x00000b78:    4608        .F      MOV      r0,r1
        0x00000b7a:    6800        .h      LDR      r0,[r0,#0]
        0x00000b7c:    4907        .I      LDR      r1,[pc,#28] ; [0xb9c] = 0x20000044
        0x00000b7e:    6008        .`      STR      r0,[r1,#0]
        0x00000b80:    f7fffad1    ....    BL       OSStartHighRdy ; 0x126
        0x00000b84:    bd10        ..      POP      {r4,pc}
    $d
        0x00000b86:    0000        ..      DCW    0
        0x00000b88:    2000003c    <..     DCD    536870972
        0x00000b8c:    20000038    8..     DCD    536870968
        0x00000b90:    20000037    7..     DCD    536870967
        0x00000b94:    20000394    ...     DCD    536871828
        0x00000b98:    2000004c    L..     DCD    536870988
        0x00000b9c:    20000044    D..     DCD    536870980
    $t
    i.OSStatInit
    OSStatInit
        0x00000ba0:    b510        ..      PUSH     {r4,lr}
        0x00000ba2:    2400        .$      MOVS     r4,#0
        0x00000ba4:    2002        .       MOVS     r0,#2
        0x00000ba6:    f000fa65    ..e.    BL       OSTimeDly ; 0x1074
        0x00000baa:    f7fffab5    ....    BL       OS_CPU_SR_Save ; 0x118
        0x00000bae:    4604        .F      MOV      r4,r0
        0x00000bb0:    2000        .       MOVS     r0,#0
        0x00000bb2:    490b        .I      LDR      r1,[pc,#44] ; [0xbe0] = 0x20000040
        0x00000bb4:    6008        .`      STR      r0,[r1,#0]
        0x00000bb6:    4620         F      MOV      r0,r4
        0x00000bb8:    f7fffab2    ....    BL       OS_CPU_SR_Restore ; 0x120
        0x00000bbc:    2064        d       MOVS     r0,#0x64
        0x00000bbe:    f000fa59    ..Y.    BL       OSTimeDly ; 0x1074
        0x00000bc2:    f7fffaa9    ....    BL       OS_CPU_SR_Save ; 0x118
        0x00000bc6:    4604        .F      MOV      r4,r0
        0x00000bc8:    4805        .H      LDR      r0,[pc,#20] ; [0xbe0] = 0x20000040
        0x00000bca:    6800        .h      LDR      r0,[r0,#0]
        0x00000bcc:    4905        .I      LDR      r1,[pc,#20] ; [0xbe4] = 0x2000002c
        0x00000bce:    6008        .`      STR      r0,[r1,#0]
        0x00000bd0:    2001        .       MOVS     r0,#1
        0x00000bd2:    4905        .I      LDR      r1,[pc,#20] ; [0xbe8] = 0x20000034
        0x00000bd4:    7008        .p      STRB     r0,[r1,#0]
        0x00000bd6:    4620         F      MOV      r0,r4
        0x00000bd8:    f7fffaa2    ....    BL       OS_CPU_SR_Restore ; 0x120
        0x00000bdc:    bd10        ..      POP      {r4,pc}
    $d
        0x00000bde:    0000        ..      DCW    0
        0x00000be0:    20000040    @..     DCD    536870976
        0x00000be4:    2000002c    ,..     DCD    536870956
        0x00000be8:    20000034    4..     DCD    536870964
    $t
    i.OSTCBInitHook
    OSTCBInitHook
        0x00000bec:    b510        ..      PUSH     {r4,lr}
        0x00000bee:    4604        .F      MOV      r4,r0
        0x00000bf0:    4620         F      MOV      r0,r4
        0x00000bf2:    f7fffbcb    ....    BL       App_TCBInitHook ; 0x38c
        0x00000bf6:    bd10        ..      POP      {r4,pc}
    i.OSTaskCreateExt
    OSTaskCreateExt
        0x00000bf8:    b5ff        ..      PUSH     {r0-r7,lr}
        0x00000bfa:    b085        ..      SUB      sp,sp,#0x14
        0x00000bfc:    461c        .F      MOV      r4,r3
        0x00000bfe:    9f0f        ..      LDR      r7,[sp,#0x3c]
        0x00000c00:    9d12        ..      LDR      r5,[sp,#0x48]
        0x00000c02:    2000        .       MOVS     r0,#0
        0x00000c04:    9003        ..      STR      r0,[sp,#0xc]
        0x00000c06:    f7fffa87    ....    BL       OS_CPU_SR_Save ; 0x118
        0x00000c0a:    9003        ..      STR      r0,[sp,#0xc]
        0x00000c0c:    4822        "H      LDR      r0,[pc,#136] ; [0xc98] = 0x20000035
        0x00000c0e:    7800        .x      LDRB     r0,[r0,#0]
        0x00000c10:    2800        .(      CMP      r0,#0
        0x00000c12:    d005        ..      BEQ      0xc20 ; OSTaskCreateExt + 40
        0x00000c14:    9803        ..      LDR      r0,[sp,#0xc]
        0x00000c16:    f7fffa83    ....    BL       OS_CPU_SR_Restore ; 0x120
        0x00000c1a:    203c        <       MOVS     r0,#0x3c
        0x00000c1c:    b009        ..      ADD      sp,sp,#0x24
        0x00000c1e:    bdf0        ..      POP      {r4-r7,pc}
        0x00000c20:    00a0        ..      LSLS     r0,r4,#2
        0x00000c22:    491e        .I      LDR      r1,[pc,#120] ; [0xc9c] = 0x20000394
        0x00000c24:    5808        .X      LDR      r0,[r1,r0]
        0x00000c26:    2800        .(      CMP      r0,#0
        0x00000c28:    d131        1.      BNE      0xc8e ; OSTaskCreateExt + 150
        0x00000c2a:    2001        .       MOVS     r0,#1
        0x00000c2c:    00a1        ..      LSLS     r1,r4,#2
        0x00000c2e:    4a1b        .J      LDR      r2,[pc,#108] ; [0xc9c] = 0x20000394
        0x00000c30:    5050        PP      STR      r0,[r2,r1]
        0x00000c32:    9803        ..      LDR      r0,[sp,#0xc]
        0x00000c34:    f7fffa74    ..t.    BL       OS_CPU_SR_Restore ; 0x120
        0x00000c38:    462a        *F      MOV      r2,r5
        0x00000c3a:    4638        8F      MOV      r0,r7
        0x00000c3c:    9910        ..      LDR      r1,[sp,#0x40]
        0x00000c3e:    f001f81b    ....    BL       OS_TaskStkClr ; 0x1c78
        0x00000c42:    462b        +F      MOV      r3,r5
        0x00000c44:    a805        ..      ADD      r0,sp,#0x14
        0x00000c46:    c807        ..      LDM      r0,{r0-r2}
        0x00000c48:    f000f97a    ..z.    BL       OSTaskStkInit ; 0xf40
        0x00000c4c:    9004        ..      STR      r0,[sp,#0x10]
        0x00000c4e:    9911        ..      LDR      r1,[sp,#0x44]
        0x00000c50:    9810        ..      LDR      r0,[sp,#0x40]
        0x00000c52:    466a        jF      MOV      r2,sp
        0x00000c54:    c223        #.      STM      r2!,{r0,r1,r5}
        0x00000c56:    463a        :F      MOV      r2,r7
        0x00000c58:    4620         F      MOV      r0,r4
        0x00000c5a:    9b0e        ..      LDR      r3,[sp,#0x38]
        0x00000c5c:    9904        ..      LDR      r1,[sp,#0x10]
        0x00000c5e:    f000fee7    ....    BL       OS_TCBInit ; 0x1a30
        0x00000c62:    4606        .F      MOV      r6,r0
        0x00000c64:    2e00        ..      CMP      r6,#0
        0x00000c66:    d106        ..      BNE      0xc76 ; OSTaskCreateExt + 126
        0x00000c68:    480d        .H      LDR      r0,[pc,#52] ; [0xca0] = 0x2000003c
        0x00000c6a:    7800        .x      LDRB     r0,[r0,#0]
        0x00000c6c:    2801        .(      CMP      r0,#1
        0x00000c6e:    d10c        ..      BNE      0xc8a ; OSTaskCreateExt + 146
        0x00000c70:    f000fe8c    ....    BL       OS_Sched ; 0x198c
        0x00000c74:    e009        ..      B        0xc8a ; OSTaskCreateExt + 146
        0x00000c76:    f7fffa4f    ..O.    BL       OS_CPU_SR_Save ; 0x118
        0x00000c7a:    9003        ..      STR      r0,[sp,#0xc]
        0x00000c7c:    2000        .       MOVS     r0,#0
        0x00000c7e:    00a1        ..      LSLS     r1,r4,#2
        0x00000c80:    4a06        .J      LDR      r2,[pc,#24] ; [0xc9c] = 0x20000394
        0x00000c82:    5050        PP      STR      r0,[r2,r1]
        0x00000c84:    9803        ..      LDR      r0,[sp,#0xc]
        0x00000c86:    f7fffa4b    ..K.    BL       OS_CPU_SR_Restore ; 0x120
        0x00000c8a:    4630        0F      MOV      r0,r6
        0x00000c8c:    e7c6        ..      B        0xc1c ; OSTaskCreateExt + 36
        0x00000c8e:    9803        ..      LDR      r0,[sp,#0xc]
        0x00000c90:    f7fffa46    ..F.    BL       OS_CPU_SR_Restore ; 0x120
        0x00000c94:    2028        (       MOVS     r0,#0x28
        0x00000c96:    e7c1        ..      B        0xc1c ; OSTaskCreateExt + 36
    $d
        0x00000c98:    20000035    5..     DCD    536870965
        0x00000c9c:    20000394    ...     DCD    536871828
        0x00000ca0:    2000003c    <..     DCD    536870972
    $t
    i.OSTaskCreateHook
    OSTaskCreateHook
        0x00000ca4:    b510        ..      PUSH     {r4,lr}
        0x00000ca6:    4604        .F      MOV      r4,r0
        0x00000ca8:    4620         F      MOV      r0,r4
        0x00000caa:    f7fffb70    ..p.    BL       App_TaskCreateHook ; 0x38e
        0x00000cae:    bd10        ..      POP      {r4,pc}
    i.OSTaskDel
    OSTaskDel
        0x00000cb0:    b5f8        ..      PUSH     {r3-r7,lr}
        0x00000cb2:    4605        .F      MOV      r5,r0
        0x00000cb4:    2700        .'      MOVS     r7,#0
        0x00000cb6:    484f        OH      LDR      r0,[pc,#316] ; [0xdf4] = 0x20000035
        0x00000cb8:    7800        .x      LDRB     r0,[r0,#0]
        0x00000cba:    2800        .(      CMP      r0,#0
        0x00000cbc:    d001        ..      BEQ      0xcc2 ; OSTaskDel + 18
        0x00000cbe:    2040        @       MOVS     r0,#0x40
        0x00000cc0:    bdf8        ..      POP      {r3-r7,pc}
        0x00000cc2:    2d0a        .-      CMP      r5,#0xa
        0x00000cc4:    d101        ..      BNE      0xcca ; OSTaskDel + 26
        0x00000cc6:    203e        >       MOVS     r0,#0x3e
        0x00000cc8:    e7fa        ..      B        0xcc0 ; OSTaskDel + 16
        0x00000cca:    f7fffa25    ..%.    BL       OS_CPU_SR_Save ; 0x118
        0x00000cce:    4607        .F      MOV      r7,r0
        0x00000cd0:    2dff        .-      CMP      r5,#0xff
        0x00000cd2:    d103        ..      BNE      0xcdc ; OSTaskDel + 44
        0x00000cd4:    4848        HH      LDR      r0,[pc,#288] ; [0xdf8] = 0x20000044
        0x00000cd6:    6800        .h      LDR      r0,[r0,#0]
        0x00000cd8:    3020         0      ADDS     r0,r0,#0x20
        0x00000cda:    7d85        .}      LDRB     r5,[r0,#0x16]
        0x00000cdc:    00a8        ..      LSLS     r0,r5,#2
        0x00000cde:    4947        GI      LDR      r1,[pc,#284] ; [0xdfc] = 0x20000394
        0x00000ce0:    580c        .X      LDR      r4,[r1,r0]
        0x00000ce2:    2c00        .,      CMP      r4,#0
        0x00000ce4:    d104        ..      BNE      0xcf0 ; OSTaskDel + 64
        0x00000ce6:    4638        8F      MOV      r0,r7
        0x00000ce8:    f7fffa1a    ....    BL       OS_CPU_SR_Restore ; 0x120
        0x00000cec:    2043        C       MOVS     r0,#0x43
        0x00000cee:    e7e7        ..      B        0xcc0 ; OSTaskDel + 16
        0x00000cf0:    2c01        .,      CMP      r4,#1
        0x00000cf2:    d104        ..      BNE      0xcfe ; OSTaskDel + 78
        0x00000cf4:    4638        8F      MOV      r0,r7
        0x00000cf6:    f7fffa13    ....    BL       OS_CPU_SR_Restore ; 0x120
        0x00000cfa:    203d        =       MOVS     r0,#0x3d
        0x00000cfc:    e7e0        ..      B        0xcc0 ; OSTaskDel + 16
        0x00000cfe:    2038        8       MOVS     r0,#0x38
        0x00000d00:    5d00        .]      LDRB     r0,[r0,r4]
        0x00000d02:    493f        ?I      LDR      r1,[pc,#252] ; [0xe00] = 0x2000003a
        0x00000d04:    5c08        .\      LDRB     r0,[r1,r0]
        0x00000d06:    2139        9!      MOVS     r1,#0x39
        0x00000d08:    5d09        .]      LDRB     r1,[r1,r4]
        0x00000d0a:    4388        .C      BICS     r0,r0,r1
        0x00000d0c:    2138        8!      MOVS     r1,#0x38
        0x00000d0e:    5d09        .]      LDRB     r1,[r1,r4]
        0x00000d10:    4a3b        ;J      LDR      r2,[pc,#236] ; [0xe00] = 0x2000003a
        0x00000d12:    5450        PT      STRB     r0,[r2,r1]
        0x00000d14:    2038        8       MOVS     r0,#0x38
        0x00000d16:    5d00        .]      LDRB     r0,[r0,r4]
        0x00000d18:    4611        .F      MOV      r1,r2
        0x00000d1a:    5c08        .\      LDRB     r0,[r1,r0]
        0x00000d1c:    2800        .(      CMP      r0,#0
        0x00000d1e:    d106        ..      BNE      0xd2e ; OSTaskDel + 126
        0x00000d20:    203a        :       MOVS     r0,#0x3a
        0x00000d22:    5d01        .]      LDRB     r1,[r0,r4]
        0x00000d24:    4837        7H      LDR      r0,[pc,#220] ; [0xe04] = 0x20000039
        0x00000d26:    7800        .x      LDRB     r0,[r0,#0]
        0x00000d28:    4388        .C      BICS     r0,r0,r1
        0x00000d2a:    4936        6I      LDR      r1,[pc,#216] ; [0xe04] = 0x20000039
        0x00000d2c:    7008        .p      STRB     r0,[r1,#0]
        0x00000d2e:    69e0        .i      LDR      r0,[r4,#0x1c]
        0x00000d30:    2800        .(      CMP      r0,#0
        0x00000d32:    d003        ..      BEQ      0xd3c ; OSTaskDel + 140
        0x00000d34:    4620         F      MOV      r0,r4
        0x00000d36:    69e1        .i      LDR      r1,[r4,#0x1c]
        0x00000d38:    f000fc32    ..2.    BL       OS_EventTaskRemove ; 0x15a0
        0x00000d3c:    6a20         j      LDR      r0,[r4,#0x20]
        0x00000d3e:    2800        .(      CMP      r0,#0
        0x00000d40:    d003        ..      BEQ      0xd4a ; OSTaskDel + 154
        0x00000d42:    4620         F      MOV      r0,r4
        0x00000d44:    6a21        !j      LDR      r1,[r4,#0x20]
        0x00000d46:    f000fc41    ..A.    BL       OS_EventTaskRemoveMulti ; 0x15cc
        0x00000d4a:    6aa6        .j      LDR      r6,[r4,#0x28]
        0x00000d4c:    2e00        ..      CMP      r6,#0
        0x00000d4e:    d002        ..      BEQ      0xd56 ; OSTaskDel + 166
        0x00000d50:    4630        0F      MOV      r0,r6
        0x00000d52:    f000fcd3    ....    BL       OS_FlagUnlink ; 0x16fc
        0x00000d56:    2000        .       MOVS     r0,#0
        0x00000d58:    6320         c      STR      r0,[r4,#0x30]
        0x00000d5a:    2100        .!      MOVS     r1,#0
        0x00000d5c:    2034        4       MOVS     r0,#0x34
        0x00000d5e:    5501        .U      STRB     r1,[r0,r4]
        0x00000d60:    2035        5       MOVS     r0,#0x35
        0x00000d62:    5501        .U      STRB     r1,[r0,r4]
        0x00000d64:    4828        (H      LDR      r0,[pc,#160] ; [0xe08] = 0x20000036
        0x00000d66:    7800        .x      LDRB     r0,[r0,#0]
        0x00000d68:    28ff        .(      CMP      r0,#0xff
        0x00000d6a:    d204        ..      BCS      0xd76 ; OSTaskDel + 198
        0x00000d6c:    4826        &H      LDR      r0,[pc,#152] ; [0xe08] = 0x20000036
        0x00000d6e:    7800        .x      LDRB     r0,[r0,#0]
        0x00000d70:    1c40        @.      ADDS     r0,r0,#1
        0x00000d72:    4925        %I      LDR      r1,[pc,#148] ; [0xe08] = 0x20000036
        0x00000d74:    7008        .p      STRB     r0,[r1,#0]
        0x00000d76:    4638        8F      MOV      r0,r7
        0x00000d78:    f7fff9d2    ....    BL       OS_CPU_SR_Restore ; 0x120
        0x00000d7c:    f000fbc2    ....    BL       OS_Dummy ; 0x1504
        0x00000d80:    f7fff9ca    ....    BL       OS_CPU_SR_Save ; 0x118
        0x00000d84:    4607        .F      MOV      r7,r0
        0x00000d86:    4820         H      LDR      r0,[pc,#128] ; [0xe08] = 0x20000036
        0x00000d88:    7800        .x      LDRB     r0,[r0,#0]
        0x00000d8a:    2800        .(      CMP      r0,#0
        0x00000d8c:    d004        ..      BEQ      0xd98 ; OSTaskDel + 232
        0x00000d8e:    481e        .H      LDR      r0,[pc,#120] ; [0xe08] = 0x20000036
        0x00000d90:    7800        .x      LDRB     r0,[r0,#0]
        0x00000d92:    1e40        @.      SUBS     r0,r0,#1
        0x00000d94:    491c        .I      LDR      r1,[pc,#112] ; [0xe08] = 0x20000036
        0x00000d96:    7008        .p      STRB     r0,[r1,#0]
        0x00000d98:    4620         F      MOV      r0,r4
        0x00000d9a:    f000f841    ..A.    BL       OSTaskDelHook ; 0xe20
        0x00000d9e:    481b        .H      LDR      r0,[pc,#108] ; [0xe0c] = 0x2000003d
        0x00000da0:    7800        .x      LDRB     r0,[r0,#0]
        0x00000da2:    1e40        @.      SUBS     r0,r0,#1
        0x00000da4:    4919        .I      LDR      r1,[pc,#100] ; [0xe0c] = 0x2000003d
        0x00000da6:    7008        .p      STRB     r0,[r1,#0]
        0x00000da8:    2000        .       MOVS     r0,#0
        0x00000daa:    00a9        ..      LSLS     r1,r5,#2
        0x00000dac:    4a13        .J      LDR      r2,[pc,#76] ; [0xdfc] = 0x20000394
        0x00000dae:    5050        PP      STR      r0,[r2,r1]
        0x00000db0:    69a0        .i      LDR      r0,[r4,#0x18]
        0x00000db2:    2800        .(      CMP      r0,#0
        0x00000db4:    d105        ..      BNE      0xdc2 ; OSTaskDel + 274
        0x00000db6:    6961        ai      LDR      r1,[r4,#0x14]
        0x00000db8:    6188        .a      STR      r0,[r1,#0x18]
        0x00000dba:    4915        .I      LDR      r1,[pc,#84] ; [0xe10] = 0x20000050
        0x00000dbc:    6960        `i      LDR      r0,[r4,#0x14]
        0x00000dbe:    6008        .`      STR      r0,[r1,#0]
        0x00000dc0:    e005        ..      B        0xdce ; OSTaskDel + 286
        0x00000dc2:    69a1        .i      LDR      r1,[r4,#0x18]
        0x00000dc4:    6960        `i      LDR      r0,[r4,#0x14]
        0x00000dc6:    6148        Ha      STR      r0,[r1,#0x14]
        0x00000dc8:    6961        ai      LDR      r1,[r4,#0x14]
        0x00000dca:    69a0        .i      LDR      r0,[r4,#0x18]
        0x00000dcc:    6188        .a      STR      r0,[r1,#0x18]
        0x00000dce:    4811        .H      LDR      r0,[pc,#68] ; [0xe14] = 0x20000048
        0x00000dd0:    6800        .h      LDR      r0,[r0,#0]
        0x00000dd2:    6160        `a      STR      r0,[r4,#0x14]
        0x00000dd4:    480f        .H      LDR      r0,[pc,#60] ; [0xe14] = 0x20000048
        0x00000dd6:    6004        .`      STR      r4,[r0,#0]
        0x00000dd8:    a00f        ..      ADR      r0,{pc}+0x40 ; 0xe18
        0x00000dda:    6520         e      STR      r0,[r4,#0x50]
        0x00000ddc:    4638        8F      MOV      r0,r7
        0x00000dde:    f7fff99f    ....    BL       OS_CPU_SR_Restore ; 0x120
        0x00000de2:    480e        .H      LDR      r0,[pc,#56] ; [0xe1c] = 0x2000003c
        0x00000de4:    7800        .x      LDRB     r0,[r0,#0]
        0x00000de6:    2801        .(      CMP      r0,#1
        0x00000de8:    d101        ..      BNE      0xdee ; OSTaskDel + 318
        0x00000dea:    f000fdcf    ....    BL       OS_Sched ; 0x198c
        0x00000dee:    2000        .       MOVS     r0,#0
        0x00000df0:    e766        f.      B        0xcc0 ; OSTaskDel + 16
    $d
        0x00000df2:    0000        ..      DCW    0
        0x00000df4:    20000035    5..     DCD    536870965
        0x00000df8:    20000044    D..     DCD    536870980
        0x00000dfc:    20000394    ...     DCD    536871828
        0x00000e00:    2000003a    :..     DCD    536870970
        0x00000e04:    20000039    9..     DCD    536870969
        0x00000e08:    20000036    6..     DCD    536870966
        0x00000e0c:    2000003d    =..     DCD    536870973
        0x00000e10:    20000050    P..     DCD    536870992
        0x00000e14:    20000048    H..     DCD    536870984
        0x00000e18:    0000003f    ?...    DCD    63
        0x00000e1c:    2000003c    <..     DCD    536870972
    $t
    i.OSTaskDelHook
    OSTaskDelHook
        0x00000e20:    b510        ..      PUSH     {r4,lr}
        0x00000e22:    4604        .F      MOV      r4,r0
        0x00000e24:    4620         F      MOV      r0,r4
        0x00000e26:    f7fffab3    ....    BL       App_TaskDelHook ; 0x390
        0x00000e2a:    bd10        ..      POP      {r4,pc}
    i.OSTaskIdleHook
    OSTaskIdleHook
        0x00000e2c:    b510        ..      PUSH     {r4,lr}
        0x00000e2e:    f7fffab0    ....    BL       App_TaskIdleHook ; 0x392
        0x00000e32:    bd10        ..      POP      {r4,pc}
    i.OSTaskNameSet
    OSTaskNameSet
        0x00000e34:    b5f8        ..      PUSH     {r3-r7,lr}
        0x00000e36:    4606        .F      MOV      r6,r0
        0x00000e38:    460f        .F      MOV      r7,r1
        0x00000e3a:    4614        .F      MOV      r4,r2
        0x00000e3c:    2000        .       MOVS     r0,#0
        0x00000e3e:    9000        ..      STR      r0,[sp,#0]
        0x00000e40:    4815        .H      LDR      r0,[pc,#84] ; [0xe98] = 0x20000035
        0x00000e42:    7800        .x      LDRB     r0,[r0,#0]
        0x00000e44:    2800        .(      CMP      r0,#0
        0x00000e46:    d002        ..      BEQ      0xe4e ; OSTaskNameSet + 26
        0x00000e48:    2012        .       MOVS     r0,#0x12
        0x00000e4a:    7020         p      STRB     r0,[r4,#0]
        0x00000e4c:    bdf8        ..      POP      {r3-r7,pc}
        0x00000e4e:    f7fff963    ..c.    BL       OS_CPU_SR_Save ; 0x118
        0x00000e52:    9000        ..      STR      r0,[sp,#0]
        0x00000e54:    2eff        ..      CMP      r6,#0xff
        0x00000e56:    d103        ..      BNE      0xe60 ; OSTaskNameSet + 44
        0x00000e58:    4810        .H      LDR      r0,[pc,#64] ; [0xe9c] = 0x20000044
        0x00000e5a:    6800        .h      LDR      r0,[r0,#0]
        0x00000e5c:    3020         0      ADDS     r0,r0,#0x20
        0x00000e5e:    7d86        .}      LDRB     r6,[r0,#0x16]
        0x00000e60:    00b0        ..      LSLS     r0,r6,#2
        0x00000e62:    490f        .I      LDR      r1,[pc,#60] ; [0xea0] = 0x20000394
        0x00000e64:    580d        .X      LDR      r5,[r1,r0]
        0x00000e66:    2d00        .-      CMP      r5,#0
        0x00000e68:    d105        ..      BNE      0xe76 ; OSTaskNameSet + 66
        0x00000e6a:    9800        ..      LDR      r0,[sp,#0]
        0x00000e6c:    f7fff958    ..X.    BL       OS_CPU_SR_Restore ; 0x120
        0x00000e70:    2043        C       MOVS     r0,#0x43
        0x00000e72:    7020         p      STRB     r0,[r4,#0]
        0x00000e74:    e7ea        ..      B        0xe4c ; OSTaskNameSet + 24
        0x00000e76:    2d01        .-      CMP      r5,#1
        0x00000e78:    d105        ..      BNE      0xe86 ; OSTaskNameSet + 82
        0x00000e7a:    9800        ..      LDR      r0,[sp,#0]
        0x00000e7c:    f7fff950    ..P.    BL       OS_CPU_SR_Restore ; 0x120
        0x00000e80:    2043        C       MOVS     r0,#0x43
        0x00000e82:    7020         p      STRB     r0,[r4,#0]
        0x00000e84:    e7e2        ..      B        0xe4c ; OSTaskNameSet + 24
        0x00000e86:    652f        /e      STR      r7,[r5,#0x50]
        0x00000e88:    9800        ..      LDR      r0,[sp,#0]
        0x00000e8a:    f7fff949    ..I.    BL       OS_CPU_SR_Restore ; 0x120
        0x00000e8e:    2000        .       MOVS     r0,#0
        0x00000e90:    7020         p      STRB     r0,[r4,#0]
        0x00000e92:    bf00        ..      NOP      
        0x00000e94:    e7da        ..      B        0xe4c ; OSTaskNameSet + 24
    $d
        0x00000e96:    0000        ..      DCW    0
        0x00000e98:    20000035    5..     DCD    536870965
        0x00000e9c:    20000044    D..     DCD    536870980
        0x00000ea0:    20000394    ...     DCD    536871828
    $t
    i.OSTaskReturnHook
    OSTaskReturnHook
        0x00000ea4:    b510        ..      PUSH     {r4,lr}
        0x00000ea6:    4604        .F      MOV      r4,r0
        0x00000ea8:    4620         F      MOV      r0,r4
        0x00000eaa:    f7fffa73    ..s.    BL       App_TaskReturnHook ; 0x394
        0x00000eae:    bd10        ..      POP      {r4,pc}
    i.OSTaskStatHook
    OSTaskStatHook
        0x00000eb0:    b510        ..      PUSH     {r4,lr}
        0x00000eb2:    f7fffa70    ..p.    BL       App_TaskStatHook ; 0x396
        0x00000eb6:    bd10        ..      POP      {r4,pc}
    i.OSTaskStkChk
    OSTaskStkChk
        0x00000eb8:    b5fe        ..      PUSH     {r1-r7,lr}
        0x00000eba:    4607        .F      MOV      r7,r0
        0x00000ebc:    460d        .F      MOV      r5,r1
        0x00000ebe:    2000        .       MOVS     r0,#0
        0x00000ec0:    9000        ..      STR      r0,[sp,#0]
        0x00000ec2:    6028        (`      STR      r0,[r5,#0]
        0x00000ec4:    6068        h`      STR      r0,[r5,#4]
        0x00000ec6:    f7fff927    ..'.    BL       OS_CPU_SR_Save ; 0x118
        0x00000eca:    9000        ..      STR      r0,[sp,#0]
        0x00000ecc:    2fff        ./      CMP      r7,#0xff
        0x00000ece:    d103        ..      BNE      0xed8 ; OSTaskStkChk + 32
        0x00000ed0:    4819        .H      LDR      r0,[pc,#100] ; [0xf38] = 0x20000044
        0x00000ed2:    6800        .h      LDR      r0,[r0,#0]
        0x00000ed4:    3020         0      ADDS     r0,r0,#0x20
        0x00000ed6:    7d87        .}      LDRB     r7,[r0,#0x16]
        0x00000ed8:    00b8        ..      LSLS     r0,r7,#2
        0x00000eda:    4918        .I      LDR      r1,[pc,#96] ; [0xf3c] = 0x20000394
        0x00000edc:    580c        .X      LDR      r4,[r1,r0]
        0x00000ede:    2c00        .,      CMP      r4,#0
        0x00000ee0:    d104        ..      BNE      0xeec ; OSTaskStkChk + 52
        0x00000ee2:    9800        ..      LDR      r0,[sp,#0]
        0x00000ee4:    f7fff91c    ....    BL       OS_CPU_SR_Restore ; 0x120
        0x00000ee8:    2043        C       MOVS     r0,#0x43
        0x00000eea:    bdfe        ..      POP      {r1-r7,pc}
        0x00000eec:    2c01        .,      CMP      r4,#1
        0x00000eee:    d104        ..      BNE      0xefa ; OSTaskStkChk + 66
        0x00000ef0:    9800        ..      LDR      r0,[sp,#0]
        0x00000ef2:    f7fff915    ....    BL       OS_CPU_SR_Restore ; 0x120
        0x00000ef6:    2043        C       MOVS     r0,#0x43
        0x00000ef8:    e7f7        ..      B        0xeea ; OSTaskStkChk + 50
        0x00000efa:    8a20         .      LDRH     r0,[r4,#0x10]
        0x00000efc:    07c0        ..      LSLS     r0,r0,#31
        0x00000efe:    0fc0        ..      LSRS     r0,r0,#31
        0x00000f00:    d104        ..      BNE      0xf0c ; OSTaskStkChk + 84
        0x00000f02:    9800        ..      LDR      r0,[sp,#0]
        0x00000f04:    f7fff90c    ....    BL       OS_CPU_SR_Restore ; 0x120
        0x00000f08:    2045        E       MOVS     r0,#0x45
        0x00000f0a:    e7ee        ..      B        0xeea ; OSTaskStkChk + 50
        0x00000f0c:    2600        .&      MOVS     r6,#0
        0x00000f0e:    68e0        .h      LDR      r0,[r4,#0xc]
        0x00000f10:    9001        ..      STR      r0,[sp,#4]
        0x00000f12:    68a0        .h      LDR      r0,[r4,#8]
        0x00000f14:    9002        ..      STR      r0,[sp,#8]
        0x00000f16:    9800        ..      LDR      r0,[sp,#0]
        0x00000f18:    f7fff902    ....    BL       OS_CPU_SR_Restore ; 0x120
        0x00000f1c:    e000        ..      B        0xf20 ; OSTaskStkChk + 104
        0x00000f1e:    1c76        v.      ADDS     r6,r6,#1
        0x00000f20:    9802        ..      LDR      r0,[sp,#8]
        0x00000f22:    c802        ..      LDM      r0!,{r1}
        0x00000f24:    9002        ..      STR      r0,[sp,#8]
        0x00000f26:    2900        .)      CMP      r1,#0
        0x00000f28:    d0f9        ..      BEQ      0xf1e ; OSTaskStkChk + 102
        0x00000f2a:    602e        .`      STR      r6,[r5,#0]
        0x00000f2c:    9801        ..      LDR      r0,[sp,#4]
        0x00000f2e:    1b80        ..      SUBS     r0,r0,r6
        0x00000f30:    6068        h`      STR      r0,[r5,#4]
        0x00000f32:    2000        .       MOVS     r0,#0
        0x00000f34:    e7d9        ..      B        0xeea ; OSTaskStkChk + 50
    $d
        0x00000f36:    0000        ..      DCW    0
        0x00000f38:    20000044    D..     DCD    536870980
        0x00000f3c:    20000394    ...     DCD    536871828
    $t
    i.OSTaskStkInit
    OSTaskStkInit
        0x00000f40:    b570        p.      PUSH     {r4-r6,lr}
        0x00000f42:    4604        .F      MOV      r4,r0
        0x00000f44:    4610        .F      MOV      r0,r2
        0x00000f46:    2501        .%      MOVS     r5,#1
        0x00000f48:    062d        -.      LSLS     r5,r5,#24
        0x00000f4a:    6005        .`      STR      r5,[r0,#0]
        0x00000f4c:    1f05        ..      SUBS     r5,r0,#4
        0x00000f4e:    4628        (F      MOV      r0,r5
        0x00000f50:    602c        ,`      STR      r4,[r5,#0]
        0x00000f52:    4e14        .N      LDR      r6,[pc,#80] ; [0xfa4] = 0x1b99
        0x00000f54:    1f05        ..      SUBS     r5,r0,#4
        0x00000f56:    4628        (F      MOV      r0,r5
        0x00000f58:    602e        .`      STR      r6,[r5,#0]
        0x00000f5a:    4e13        .N      LDR      r6,[pc,#76] ; [0xfa8] = 0x12121212
        0x00000f5c:    1f05        ..      SUBS     r5,r0,#4
        0x00000f5e:    4628        (F      MOV      r0,r5
        0x00000f60:    602e        .`      STR      r6,[r5,#0]
        0x00000f62:    4e12        .N      LDR      r6,[pc,#72] ; [0xfac] = 0x3030303
        0x00000f64:    1f05        ..      SUBS     r5,r0,#4
        0x00000f66:    4628        (F      MOV      r0,r5
        0x00000f68:    602e        .`      STR      r6,[r5,#0]
        0x00000f6a:    4e11        .N      LDR      r6,[pc,#68] ; [0xfb0] = 0x2020202
        0x00000f6c:    1f05        ..      SUBS     r5,r0,#4
        0x00000f6e:    4628        (F      MOV      r0,r5
        0x00000f70:    602e        .`      STR      r6,[r5,#0]
        0x00000f72:    1076        v.      ASRS     r6,r6,#1
        0x00000f74:    1f05        ..      SUBS     r5,r0,#4
        0x00000f76:    4628        (F      MOV      r0,r5
        0x00000f78:    602e        .`      STR      r6,[r5,#0]
        0x00000f7a:    1f05        ..      SUBS     r5,r0,#4
        0x00000f7c:    4628        (F      MOV      r0,r5
        0x00000f7e:    6029        )`      STR      r1,[r5,#0]
        0x00000f80:    4e0c        .N      LDR      r6,[pc,#48] ; [0xfb4] = 0x7070707
        0x00000f82:    1f05        ..      SUBS     r5,r0,#4
        0x00000f84:    4628        (F      MOV      r0,r5
        0x00000f86:    602e        .`      STR      r6,[r5,#0]
        0x00000f88:    4e0b        .N      LDR      r6,[pc,#44] ; [0xfb8] = 0x6060606
        0x00000f8a:    1f05        ..      SUBS     r5,r0,#4
        0x00000f8c:    4628        (F      MOV      r0,r5
        0x00000f8e:    602e        .`      STR      r6,[r5,#0]
        0x00000f90:    4e0a        .N      LDR      r6,[pc,#40] ; [0xfbc] = 0x5050505
        0x00000f92:    1f05        ..      SUBS     r5,r0,#4
        0x00000f94:    4628        (F      MOV      r0,r5
        0x00000f96:    602e        .`      STR      r6,[r5,#0]
        0x00000f98:    4e09        .N      LDR      r6,[pc,#36] ; [0xfc0] = 0x4040404
        0x00000f9a:    1f05        ..      SUBS     r5,r0,#4
        0x00000f9c:    4628        (F      MOV      r0,r5
        0x00000f9e:    602e        .`      STR      r6,[r5,#0]
        0x00000fa0:    bd70        p.      POP      {r4-r6,pc}
    $d
        0x00000fa2:    0000        ..      DCW    0
        0x00000fa4:    00001b99    ....    DCD    7065
        0x00000fa8:    12121212    ....    DCD    303174162
        0x00000fac:    03030303    ....    DCD    50529027
        0x00000fb0:    02020202    ....    DCD    33686018
        0x00000fb4:    07070707    ....    DCD    117901063
        0x00000fb8:    06060606    ....    DCD    101058054
        0x00000fbc:    05050505    ....    DCD    84215045
        0x00000fc0:    04040404    ....    DCD    67372036
    $t
    i.OSTaskSuspend
    OSTaskSuspend
        0x00000fc4:    b5f8        ..      PUSH     {r3-r7,lr}
        0x00000fc6:    4607        .F      MOV      r7,r0
        0x00000fc8:    2000        .       MOVS     r0,#0
        0x00000fca:    9000        ..      STR      r0,[sp,#0]
        0x00000fcc:    f7fff8a4    ....    BL       OS_CPU_SR_Save ; 0x118
        0x00000fd0:    9000        ..      STR      r0,[sp,#0]
        0x00000fd2:    2fff        ./      CMP      r7,#0xff
        0x00000fd4:    d105        ..      BNE      0xfe2 ; OSTaskSuspend + 30
        0x00000fd6:    4821        !H      LDR      r0,[pc,#132] ; [0x105c] = 0x20000044
        0x00000fd8:    6800        .h      LDR      r0,[r0,#0]
        0x00000fda:    3020         0      ADDS     r0,r0,#0x20
        0x00000fdc:    7d87        .}      LDRB     r7,[r0,#0x16]
        0x00000fde:    2501        .%      MOVS     r5,#1
        0x00000fe0:    e008        ..      B        0xff4 ; OSTaskSuspend + 48
        0x00000fe2:    481e        .H      LDR      r0,[pc,#120] ; [0x105c] = 0x20000044
        0x00000fe4:    6800        .h      LDR      r0,[r0,#0]
        0x00000fe6:    3020         0      ADDS     r0,r0,#0x20
        0x00000fe8:    7d80        .}      LDRB     r0,[r0,#0x16]
        0x00000fea:    42b8        .B      CMP      r0,r7
        0x00000fec:    d101        ..      BNE      0xff2 ; OSTaskSuspend + 46
        0x00000fee:    2501        .%      MOVS     r5,#1
        0x00000ff0:    e000        ..      B        0xff4 ; OSTaskSuspend + 48
        0x00000ff2:    2500        .%      MOVS     r5,#0
        0x00000ff4:    00b8        ..      LSLS     r0,r7,#2
        0x00000ff6:    491a        .I      LDR      r1,[pc,#104] ; [0x1060] = 0x20000394
        0x00000ff8:    580c        .X      LDR      r4,[r1,r0]
        0x00000ffa:    2c00        .,      CMP      r4,#0
        0x00000ffc:    d104        ..      BNE      0x1008 ; OSTaskSuspend + 68
        0x00000ffe:    9800        ..      LDR      r0,[sp,#0]
        0x00001000:    f7fff88e    ....    BL       OS_CPU_SR_Restore ; 0x120
        0x00001004:    2048        H       MOVS     r0,#0x48
        0x00001006:    bdf8        ..      POP      {r3-r7,pc}
        0x00001008:    2c01        .,      CMP      r4,#1
        0x0000100a:    d104        ..      BNE      0x1016 ; OSTaskSuspend + 82
        0x0000100c:    9800        ..      LDR      r0,[sp,#0]
        0x0000100e:    f7fff887    ....    BL       OS_CPU_SR_Restore ; 0x120
        0x00001012:    2043        C       MOVS     r0,#0x43
        0x00001014:    e7f7        ..      B        0x1006 ; OSTaskSuspend + 66
        0x00001016:    2038        8       MOVS     r0,#0x38
        0x00001018:    5d06        .]      LDRB     r6,[r0,r4]
        0x0000101a:    4812        .H      LDR      r0,[pc,#72] ; [0x1064] = 0x2000003a
        0x0000101c:    5d80        .]      LDRB     r0,[r0,r6]
        0x0000101e:    2139        9!      MOVS     r1,#0x39
        0x00001020:    5d09        .]      LDRB     r1,[r1,r4]
        0x00001022:    4388        .C      BICS     r0,r0,r1
        0x00001024:    490f        .I      LDR      r1,[pc,#60] ; [0x1064] = 0x2000003a
        0x00001026:    5588        .U      STRB     r0,[r1,r6]
        0x00001028:    4608        .F      MOV      r0,r1
        0x0000102a:    5d80        .]      LDRB     r0,[r0,r6]
        0x0000102c:    2800        .(      CMP      r0,#0
        0x0000102e:    d106        ..      BNE      0x103e ; OSTaskSuspend + 122
        0x00001030:    203a        :       MOVS     r0,#0x3a
        0x00001032:    5d01        .]      LDRB     r1,[r0,r4]
        0x00001034:    480c        .H      LDR      r0,[pc,#48] ; [0x1068] = 0x20000039
        0x00001036:    7800        .x      LDRB     r0,[r0,#0]
        0x00001038:    4388        .C      BICS     r0,r0,r1
        0x0000103a:    490b        .I      LDR      r1,[pc,#44] ; [0x1068] = 0x20000039
        0x0000103c:    7008        .p      STRB     r0,[r1,#0]
        0x0000103e:    2034        4       MOVS     r0,#0x34
        0x00001040:    5d00        .]      LDRB     r0,[r0,r4]
        0x00001042:    2108        .!      MOVS     r1,#8
        0x00001044:    4308        .C      ORRS     r0,r0,r1
        0x00001046:    2134        4!      MOVS     r1,#0x34
        0x00001048:    5508        .U      STRB     r0,[r1,r4]
        0x0000104a:    9800        ..      LDR      r0,[sp,#0]
        0x0000104c:    f7fff868    ..h.    BL       OS_CPU_SR_Restore ; 0x120
        0x00001050:    2d01        .-      CMP      r5,#1
        0x00001052:    d101        ..      BNE      0x1058 ; OSTaskSuspend + 148
        0x00001054:    f000fc9a    ....    BL       OS_Sched ; 0x198c
        0x00001058:    2000        .       MOVS     r0,#0
        0x0000105a:    e7d4        ..      B        0x1006 ; OSTaskSuspend + 66
    $d
        0x0000105c:    20000044    D..     DCD    536870980
        0x00001060:    20000394    ...     DCD    536871828
        0x00001064:    2000003a    :..     DCD    536870970
        0x00001068:    20000039    9..     DCD    536870969
    $t
    i.OSTaskSwHook
    OSTaskSwHook
        0x0000106c:    b510        ..      PUSH     {r4,lr}
        0x0000106e:    f7fff993    ....    BL       App_TaskSwHook ; 0x398
        0x00001072:    bd10        ..      POP      {r4,pc}
    i.OSTimeDly
    OSTimeDly
        0x00001074:    b570        p.      PUSH     {r4-r6,lr}
        0x00001076:    4605        .F      MOV      r5,r0
        0x00001078:    2600        .&      MOVS     r6,#0
        0x0000107a:    4819        .H      LDR      r0,[pc,#100] ; [0x10e0] = 0x20000035
        0x0000107c:    7800        .x      LDRB     r0,[r0,#0]
        0x0000107e:    2800        .(      CMP      r0,#0
        0x00001080:    d000        ..      BEQ      0x1084 ; OSTimeDly + 16
        0x00001082:    bd70        p.      POP      {r4-r6,pc}
        0x00001084:    4817        .H      LDR      r0,[pc,#92] ; [0x10e4] = 0x20000036
        0x00001086:    7800        .x      LDRB     r0,[r0,#0]
        0x00001088:    2800        .(      CMP      r0,#0
        0x0000108a:    d000        ..      BEQ      0x108e ; OSTimeDly + 26
        0x0000108c:    e7f9        ..      B        0x1082 ; OSTimeDly + 14
        0x0000108e:    2d00        .-      CMP      r5,#0
        0x00001090:    d024        $.      BEQ      0x10dc ; OSTimeDly + 104
        0x00001092:    f7fff841    ..A.    BL       OS_CPU_SR_Save ; 0x118
        0x00001096:    4606        .F      MOV      r6,r0
        0x00001098:    4813        .H      LDR      r0,[pc,#76] ; [0x10e8] = 0x20000044
        0x0000109a:    6800        .h      LDR      r0,[r0,#0]
        0x0000109c:    3020         0      ADDS     r0,r0,#0x20
        0x0000109e:    7e04        .~      LDRB     r4,[r0,#0x18]
        0x000010a0:    4812        .H      LDR      r0,[pc,#72] ; [0x10ec] = 0x2000003a
        0x000010a2:    5d00        .]      LDRB     r0,[r0,r4]
        0x000010a4:    4910        .I      LDR      r1,[pc,#64] ; [0x10e8] = 0x20000044
        0x000010a6:    6809        .h      LDR      r1,[r1,#0]
        0x000010a8:    3120         1      ADDS     r1,r1,#0x20
        0x000010aa:    7e49        I~      LDRB     r1,[r1,#0x19]
        0x000010ac:    4388        .C      BICS     r0,r0,r1
        0x000010ae:    490f        .I      LDR      r1,[pc,#60] ; [0x10ec] = 0x2000003a
        0x000010b0:    5508        .U      STRB     r0,[r1,r4]
        0x000010b2:    4608        .F      MOV      r0,r1
        0x000010b4:    5d00        .]      LDRB     r0,[r0,r4]
        0x000010b6:    2800        .(      CMP      r0,#0
        0x000010b8:    d108        ..      BNE      0x10cc ; OSTimeDly + 88
        0x000010ba:    480b        .H      LDR      r0,[pc,#44] ; [0x10e8] = 0x20000044
        0x000010bc:    6800        .h      LDR      r0,[r0,#0]
        0x000010be:    3020         0      ADDS     r0,r0,#0x20
        0x000010c0:    7e81        .~      LDRB     r1,[r0,#0x1a]
        0x000010c2:    480b        .H      LDR      r0,[pc,#44] ; [0x10f0] = 0x20000039
        0x000010c4:    7800        .x      LDRB     r0,[r0,#0]
        0x000010c6:    4388        .C      BICS     r0,r0,r1
        0x000010c8:    4909        .I      LDR      r1,[pc,#36] ; [0x10f0] = 0x20000039
        0x000010ca:    7008        .p      STRB     r0,[r1,#0]
        0x000010cc:    4806        .H      LDR      r0,[pc,#24] ; [0x10e8] = 0x20000044
        0x000010ce:    6800        .h      LDR      r0,[r0,#0]
        0x000010d0:    6305        .c      STR      r5,[r0,#0x30]
        0x000010d2:    4630        0F      MOV      r0,r6
        0x000010d4:    f7fff824    ..$.    BL       OS_CPU_SR_Restore ; 0x120
        0x000010d8:    f000fc58    ..X.    BL       OS_Sched ; 0x198c
        0x000010dc:    bf00        ..      NOP      
        0x000010de:    e7d0        ..      B        0x1082 ; OSTimeDly + 14
    $d
        0x000010e0:    20000035    5..     DCD    536870965
        0x000010e4:    20000036    6..     DCD    536870966
        0x000010e8:    20000044    D..     DCD    536870980
        0x000010ec:    2000003a    :..     DCD    536870970
        0x000010f0:    20000039    9..     DCD    536870969
    $t
    i.OSTimeTick
    OSTimeTick
        0x000010f4:    b570        p.      PUSH     {r4-r6,lr}
        0x000010f6:    2600        .&      MOVS     r6,#0
        0x000010f8:    f000f878    ..x.    BL       OSTimeTickHook ; 0x11ec
        0x000010fc:    f7fff80c    ....    BL       OS_CPU_SR_Save ; 0x118
        0x00001100:    4606        .F      MOV      r6,r0
        0x00001102:    4834        4H      LDR      r0,[pc,#208] ; [0x11d4] = 0x2000005c
        0x00001104:    6800        .h      LDR      r0,[r0,#0]
        0x00001106:    1c40        @.      ADDS     r0,r0,#1
        0x00001108:    4932        2I      LDR      r1,[pc,#200] ; [0x11d4] = 0x2000005c
        0x0000110a:    6008        .`      STR      r0,[r1,#0]
        0x0000110c:    4630        0F      MOV      r0,r6
        0x0000110e:    f7fff807    ....    BL       OS_CPU_SR_Restore ; 0x120
        0x00001112:    4831        1H      LDR      r0,[pc,#196] ; [0x11d8] = 0x2000003c
        0x00001114:    7800        .x      LDRB     r0,[r0,#0]
        0x00001116:    2801        .(      CMP      r0,#1
        0x00001118:    d15a        Z.      BNE      0x11d0 ; OSTimeTick + 220
        0x0000111a:    4830        0H      LDR      r0,[pc,#192] ; [0x11dc] = 0x20000054
        0x0000111c:    7800        .x      LDRB     r0,[r0,#0]
        0x0000111e:    2800        .(      CMP      r0,#0
        0x00001120:    d004        ..      BEQ      0x112c ; OSTimeTick + 56
        0x00001122:    2801        .(      CMP      r0,#1
        0x00001124:    d004        ..      BEQ      0x1130 ; OSTimeTick + 60
        0x00001126:    2802        .(      CMP      r0,#2
        0x00001128:    d109        ..      BNE      0x113e ; OSTimeTick + 74
        0x0000112a:    e003        ..      B        0x1134 ; OSTimeTick + 64
        0x0000112c:    2501        .%      MOVS     r5,#1
        0x0000112e:    e00b        ..      B        0x1148 ; OSTimeTick + 84
        0x00001130:    2500        .%      MOVS     r5,#0
        0x00001132:    e009        ..      B        0x1148 ; OSTimeTick + 84
        0x00001134:    2501        .%      MOVS     r5,#1
        0x00001136:    2001        .       MOVS     r0,#1
        0x00001138:    4928        (I      LDR      r1,[pc,#160] ; [0x11dc] = 0x20000054
        0x0000113a:    7008        .p      STRB     r0,[r1,#0]
        0x0000113c:    e004        ..      B        0x1148 ; OSTimeTick + 84
        0x0000113e:    2501        .%      MOVS     r5,#1
        0x00001140:    2000        .       MOVS     r0,#0
        0x00001142:    4926        &I      LDR      r1,[pc,#152] ; [0x11dc] = 0x20000054
        0x00001144:    7008        .p      STRB     r0,[r1,#0]
        0x00001146:    bf00        ..      NOP      
        0x00001148:    bf00        ..      NOP      
        0x0000114a:    2d00        .-      CMP      r5,#0
        0x0000114c:    d100        ..      BNE      0x1150 ; OSTimeTick + 92
        0x0000114e:    bd70        p.      POP      {r4-r6,pc}
        0x00001150:    4823        #H      LDR      r0,[pc,#140] ; [0x11e0] = 0x20000050
        0x00001152:    6804        .h      LDR      r4,[r0,#0]
        0x00001154:    e038        8.      B        0x11c8 ; OSTimeTick + 212
        0x00001156:    f7feffdf    ....    BL       OS_CPU_SR_Save ; 0x118
        0x0000115a:    4606        .F      MOV      r6,r0
        0x0000115c:    6b20         k      LDR      r0,[r4,#0x30]
        0x0000115e:    2800        .(      CMP      r0,#0
        0x00001160:    d02e        ..      BEQ      0x11c0 ; OSTimeTick + 204
        0x00001162:    6b20         k      LDR      r0,[r4,#0x30]
        0x00001164:    1e40        @.      SUBS     r0,r0,#1
        0x00001166:    6320         c      STR      r0,[r4,#0x30]
        0x00001168:    6b20         k      LDR      r0,[r4,#0x30]
        0x0000116a:    2800        .(      CMP      r0,#0
        0x0000116c:    d128        (.      BNE      0x11c0 ; OSTimeTick + 204
        0x0000116e:    2034        4       MOVS     r0,#0x34
        0x00001170:    5d00        .]      LDRB     r0,[r0,r4]
        0x00001172:    2137        7!      MOVS     r1,#0x37
        0x00001174:    4208        .B      TST      r0,r1
        0x00001176:    d009        ..      BEQ      0x118c ; OSTimeTick + 152
        0x00001178:    2034        4       MOVS     r0,#0x34
        0x0000117a:    5d00        .]      LDRB     r0,[r0,r4]
        0x0000117c:    21c8        .!      MOVS     r1,#0xc8
        0x0000117e:    4008        .@      ANDS     r0,r0,r1
        0x00001180:    2134        4!      MOVS     r1,#0x34
        0x00001182:    5508        .U      STRB     r0,[r1,r4]
        0x00001184:    2101        .!      MOVS     r1,#1
        0x00001186:    2035        5       MOVS     r0,#0x35
        0x00001188:    5501        .U      STRB     r1,[r0,r4]
        0x0000118a:    e002        ..      B        0x1192 ; OSTimeTick + 158
        0x0000118c:    2100        .!      MOVS     r1,#0
        0x0000118e:    2035        5       MOVS     r0,#0x35
        0x00001190:    5501        .U      STRB     r1,[r0,r4]
        0x00001192:    2034        4       MOVS     r0,#0x34
        0x00001194:    5d00        .]      LDRB     r0,[r0,r4]
        0x00001196:    2108        .!      MOVS     r1,#8
        0x00001198:    4208        .B      TST      r0,r1
        0x0000119a:    d111        ..      BNE      0x11c0 ; OSTimeTick + 204
        0x0000119c:    203a        :       MOVS     r0,#0x3a
        0x0000119e:    5d00        .]      LDRB     r0,[r0,r4]
        0x000011a0:    4910        .I      LDR      r1,[pc,#64] ; [0x11e4] = 0x20000039
        0x000011a2:    7809        .x      LDRB     r1,[r1,#0]
        0x000011a4:    4308        .C      ORRS     r0,r0,r1
        0x000011a6:    490f        .I      LDR      r1,[pc,#60] ; [0x11e4] = 0x20000039
        0x000011a8:    7008        .p      STRB     r0,[r1,#0]
        0x000011aa:    2038        8       MOVS     r0,#0x38
        0x000011ac:    5d00        .]      LDRB     r0,[r0,r4]
        0x000011ae:    490e        .I      LDR      r1,[pc,#56] ; [0x11e8] = 0x2000003a
        0x000011b0:    5c08        .\      LDRB     r0,[r1,r0]
        0x000011b2:    2139        9!      MOVS     r1,#0x39
        0x000011b4:    5d09        .]      LDRB     r1,[r1,r4]
        0x000011b6:    4308        .C      ORRS     r0,r0,r1
        0x000011b8:    2138        8!      MOVS     r1,#0x38
        0x000011ba:    5d09        .]      LDRB     r1,[r1,r4]
        0x000011bc:    4a0a        .J      LDR      r2,[pc,#40] ; [0x11e8] = 0x2000003a
        0x000011be:    5450        PT      STRB     r0,[r2,r1]
        0x000011c0:    6964        di      LDR      r4,[r4,#0x14]
        0x000011c2:    4630        0F      MOV      r0,r6
        0x000011c4:    f7feffac    ....    BL       OS_CPU_SR_Restore ; 0x120
        0x000011c8:    2036        6       MOVS     r0,#0x36
        0x000011ca:    5d00        .]      LDRB     r0,[r0,r4]
        0x000011cc:    280a        .(      CMP      r0,#0xa
        0x000011ce:    d1c2        ..      BNE      0x1156 ; OSTimeTick + 98
        0x000011d0:    bf00        ..      NOP      
        0x000011d2:    e7bc        ..      B        0x114e ; OSTimeTick + 90
    $d
        0x000011d4:    2000005c    \..     DCD    536871004
        0x000011d8:    2000003c    <..     DCD    536870972
        0x000011dc:    20000054    T..     DCD    536870996
        0x000011e0:    20000050    P..     DCD    536870992
        0x000011e4:    20000039    9..     DCD    536870969
        0x000011e8:    2000003a    :..     DCD    536870970
    $t
    i.OSTimeTickHook
    OSTimeTickHook
        0x000011ec:    b510        ..      PUSH     {r4,lr}
        0x000011ee:    f7fff8d4    ....    BL       App_TimeTickHook ; 0x39a
        0x000011f2:    4807        .H      LDR      r0,[pc,#28] ; [0x1210] = 0x20000078
        0x000011f4:    8800        ..      LDRH     r0,[r0,#0]
        0x000011f6:    1c40        @.      ADDS     r0,r0,#1
        0x000011f8:    4905        .I      LDR      r1,[pc,#20] ; [0x1210] = 0x20000078
        0x000011fa:    8008        ..      STRH     r0,[r1,#0]
        0x000011fc:    4608        .F      MOV      r0,r1
        0x000011fe:    8800        ..      LDRH     r0,[r0,#0]
        0x00001200:    2864        d(      CMP      r0,#0x64
        0x00001202:    d303        ..      BCC      0x120c ; OSTimeTickHook + 32
        0x00001204:    2000        .       MOVS     r0,#0
        0x00001206:    8008        ..      STRH     r0,[r1,#0]
        0x00001208:    f000f804    ....    BL       OSTmrSignal ; 0x1214
        0x0000120c:    bd10        ..      POP      {r4,pc}
    $d
        0x0000120e:    0000        ..      DCW    0
        0x00001210:    20000078    x..     DCD    536871032
    $t
    i.OSTmrSignal
    OSTmrSignal
        0x00001214:    b510        ..      PUSH     {r4,lr}
        0x00001216:    4803        .H      LDR      r0,[pc,#12] ; [0x1224] = 0x2000006c
        0x00001218:    6800        .h      LDR      r0,[r0,#0]
        0x0000121a:    f7fffc6d    ..m.    BL       OSSemPost ; 0xaf8
        0x0000121e:    4604        .F      MOV      r4,r0
        0x00001220:    4620         F      MOV      r0,r4
        0x00001222:    bd10        ..      POP      {r4,pc}
    $d
        0x00001224:    2000006c    l..     DCD    536871020
    $t
    i.OSTmr_Init
    OSTmr_Init
        0x00001228:    b5f8        ..      PUSH     {r3-r7,lr}
        0x0000122a:    21ff        .!      MOVS     r1,#0xff
        0x0000122c:    3141        A1      ADDS     r1,r1,#0x41
        0x0000122e:    4827        'H      LDR      r0,[pc,#156] ; [0x12cc] = 0x20000750
        0x00001230:    f000fb78    ..x.    BL       OS_MemClr ; 0x1924
        0x00001234:    2140        @!      MOVS     r1,#0x40
        0x00001236:    4826        &H      LDR      r0,[pc,#152] ; [0x12d0] = 0x200008cc
        0x00001238:    f000fb74    ..t.    BL       OS_MemClr ; 0x1924
        0x0000123c:    2500        .%      MOVS     r5,#0
        0x0000123e:    e012        ..      B        0x1266 ; OSTmr_Init + 62
        0x00001240:    1c68        h.      ADDS     r0,r5,#1
        0x00001242:    b286        ..      UXTH     r6,r0
        0x00001244:    2028        (       MOVS     r0,#0x28
        0x00001246:    4368        hC      MULS     r0,r5,r0
        0x00001248:    4920         I      LDR      r1,[pc,#128] ; [0x12cc] = 0x20000750
        0x0000124a:    1844        D.      ADDS     r4,r0,r1
        0x0000124c:    2028        (       MOVS     r0,#0x28
        0x0000124e:    4370        pC      MULS     r0,r6,r0
        0x00001250:    1847        G.      ADDS     r7,r0,r1
        0x00001252:    2064        d       MOVS     r0,#0x64
        0x00001254:    7020         p      STRB     r0,[r4,#0]
        0x00001256:    2100        .!      MOVS     r1,#0
        0x00001258:    2025        %       MOVS     r0,#0x25
        0x0000125a:    5501        .U      STRB     r1,[r0,r4]
        0x0000125c:    60e7        .`      STR      r7,[r4,#0xc]
        0x0000125e:    a01d        ..      ADR      r0,{pc}+0x76 ; 0x12d4
        0x00001260:    6220         b      STR      r0,[r4,#0x20]
        0x00001262:    1c68        h.      ADDS     r0,r5,#1
        0x00001264:    b285        ..      UXTH     r5,r0
        0x00001266:    2d07        .-      CMP      r5,#7
        0x00001268:    d3ea        ..      BCC      0x1240 ; OSTmr_Init + 24
        0x0000126a:    2028        (       MOVS     r0,#0x28
        0x0000126c:    4368        hC      MULS     r0,r5,r0
        0x0000126e:    4917        .I      LDR      r1,[pc,#92] ; [0x12cc] = 0x20000750
        0x00001270:    1844        D.      ADDS     r4,r0,r1
        0x00001272:    2064        d       MOVS     r0,#0x64
        0x00001274:    7020         p      STRB     r0,[r4,#0]
        0x00001276:    2100        .!      MOVS     r1,#0
        0x00001278:    2025        %       MOVS     r0,#0x25
        0x0000127a:    5501        .U      STRB     r1,[r0,r4]
        0x0000127c:    2000        .       MOVS     r0,#0
        0x0000127e:    60e0        .`      STR      r0,[r4,#0xc]
        0x00001280:    a014        ..      ADR      r0,{pc}+0x54 ; 0x12d4
        0x00001282:    6220         b      STR      r0,[r4,#0x20]
        0x00001284:    2000        .       MOVS     r0,#0
        0x00001286:    4914        .I      LDR      r1,[pc,#80] ; [0x12d8] = 0x20000064
        0x00001288:    6008        .`      STR      r0,[r1,#0]
        0x0000128a:    4914        .I      LDR      r1,[pc,#80] ; [0x12dc] = 0x20000062
        0x0000128c:    8008        ..      STRH     r0,[r1,#0]
        0x0000128e:    2008        .       MOVS     r0,#8
        0x00001290:    4913        .I      LDR      r1,[pc,#76] ; [0x12e0] = 0x20000060
        0x00001292:    8008        ..      STRH     r0,[r1,#0]
        0x00001294:    480d        .H      LDR      r0,[pc,#52] ; [0x12cc] = 0x20000750
        0x00001296:    4913        .I      LDR      r1,[pc,#76] ; [0x12e4] = 0x20000070
        0x00001298:    6008        .`      STR      r0,[r1,#0]
        0x0000129a:    2001        .       MOVS     r0,#1
        0x0000129c:    f7fffb82    ....    BL       OSSemCreate ; 0x9a4
        0x000012a0:    4911        .I      LDR      r1,[pc,#68] ; [0x12e8] = 0x20000068
        0x000012a2:    6008        .`      STR      r0,[r1,#0]
        0x000012a4:    2000        .       MOVS     r0,#0
        0x000012a6:    f7fffb7d    ..}.    BL       OSSemCreate ; 0x9a4
        0x000012aa:    4910        .I      LDR      r1,[pc,#64] ; [0x12ec] = 0x2000006c
        0x000012ac:    6008        .`      STR      r0,[r1,#0]
        0x000012ae:    466a        jF      MOV      r2,sp
        0x000012b0:    a10f        ..      ADR      r1,{pc}+0x40 ; 0x12f0
        0x000012b2:    480d        .H      LDR      r0,[pc,#52] ; [0x12e8] = 0x20000068
        0x000012b4:    6800        .h      LDR      r0,[r0,#0]
        0x000012b6:    f7fff999    ....    BL       OSEventNameSet ; 0x5ec
        0x000012ba:    466a        jF      MOV      r2,sp
        0x000012bc:    a111        ..      ADR      r1,{pc}+0x48 ; 0x1304
        0x000012be:    480b        .H      LDR      r0,[pc,#44] ; [0x12ec] = 0x2000006c
        0x000012c0:    6800        .h      LDR      r0,[r0,#0]
        0x000012c2:    f7fff993    ....    BL       OSEventNameSet ; 0x5ec
        0x000012c6:    f000f827    ..'.    BL       OSTmr_InitTask ; 0x1318
        0x000012ca:    bdf8        ..      POP      {r3-r7,pc}
    $d
        0x000012cc:    20000750    P..     DCD    536872784
        0x000012d0:    200008cc    ...     DCD    536873164
        0x000012d4:    0000003f    ?...    DCD    63
        0x000012d8:    20000064    d..     DCD    536871012
        0x000012dc:    20000062    b..     DCD    536871010
        0x000012e0:    20000060    `..     DCD    536871008
        0x000012e4:    20000070    p..     DCD    536871024
        0x000012e8:    20000068    h..     DCD    536871016
        0x000012ec:    2000006c    l..     DCD    536871020
        0x000012f0:    4f2f4375    uC/O    DCD    1328497525
        0x000012f4:    49492d53    S-II    DCD    1229532499
        0x000012f8:    726d5420     Tmr    DCD    1919767584
        0x000012fc:    6b636f4c    Lock    DCD    1801678668
        0x00001300:    00000000    ....    DCD    0
        0x00001304:    4f2f4375    uC/O    DCD    1328497525
        0x00001308:    49492d53    S-II    DCD    1229532499
        0x0000130c:    726d5420     Tmr    DCD    1919767584
        0x00001310:    6e676953    Sign    DCD    1852270931
        0x00001314:    00006c61    al..    DCD    27745
    $t
    i.OSTmr_InitTask
    OSTmr_InitTask
        0x00001318:    b500        ..      PUSH     {lr}
        0x0000131a:    b087        ..      SUB      sp,sp,#0x1c
        0x0000131c:    2003        .       MOVS     r0,#3
        0x0000131e:    2100        .!      MOVS     r1,#0
        0x00001320:    220f        ."      MOVS     r2,#0xf
        0x00001322:    4b0a        .K      LDR      r3,[pc,#40] ; [0x134c] = 0x20000890
        0x00001324:    9301        ..      STR      r3,[sp,#4]
        0x00001326:    9202        ..      STR      r2,[sp,#8]
        0x00001328:    9103        ..      STR      r1,[sp,#0xc]
        0x0000132a:    9004        ..      STR      r0,[sp,#0x10]
        0x0000132c:    4808        .H      LDR      r0,[pc,#32] ; [0x1350] = 0xfffd
        0x0000132e:    2308        .#      MOVS     r3,#8
        0x00001330:    4a06        .J      LDR      r2,[pc,#24] ; [0x134c] = 0x20000890
        0x00001332:    3238        82      ADDS     r2,r2,#0x38
        0x00001334:    9000        ..      STR      r0,[sp,#0]
        0x00001336:    4807        .H      LDR      r0,[pc,#28] ; [0x1354] = 0x13d9
        0x00001338:    f7fffc5e    ..^.    BL       OSTaskCreateExt ; 0xbf8
        0x0000133c:    aa06        ..      ADD      r2,sp,#0x18
        0x0000133e:    a106        ..      ADR      r1,{pc}+0x1a ; 0x1358
        0x00001340:    2008        .       MOVS     r0,#8
        0x00001342:    f7fffd77    ..w.    BL       OSTaskNameSet ; 0xe34
        0x00001346:    b007        ..      ADD      sp,sp,#0x1c
        0x00001348:    bd00        ..      POP      {pc}
    $d
        0x0000134a:    0000        ..      DCW    0
        0x0000134c:    20000890    ...     DCD    536873104
        0x00001350:    0000fffd    ....    DCD    65533
        0x00001354:    000013d9    ....    DCD    5081
        0x00001358:    4f2f4375    uC/O    DCD    1328497525
        0x0000135c:    49492d53    S-II    DCD    1229532499
        0x00001360:    726d5420     Tmr    DCD    1919767584
        0x00001364:    00000000    ....    DCD    0
    $t
    i.OSTmr_Link
    OSTmr_Link
        0x00001368:    b570        p.      PUSH     {r4-r6,lr}
        0x0000136a:    460b        .F      MOV      r3,r1
        0x0000136c:    2603        .&      MOVS     r6,#3
        0x0000136e:    2525        %%      MOVS     r5,#0x25
        0x00001370:    542e        .T      STRB     r6,[r5,r0]
        0x00001372:    2b01        .+      CMP      r3,#1
        0x00001374:    d105        ..      BNE      0x1382 ; OSTmr_Link + 26
        0x00001376:    4e16        .N      LDR      r6,[pc,#88] ; [0x13d0] = 0x20000064
        0x00001378:    69c5        .i      LDR      r5,[r0,#0x1c]
        0x0000137a:    6836        6h      LDR      r6,[r6,#0]
        0x0000137c:    19ad        ..      ADDS     r5,r5,r6
        0x0000137e:    6145        Ea      STR      r5,[r0,#0x14]
        0x00001380:    e00d        ..      B        0x139e ; OSTmr_Link + 54
        0x00001382:    6985        .i      LDR      r5,[r0,#0x18]
        0x00001384:    2d00        .-      CMP      r5,#0
        0x00001386:    d105        ..      BNE      0x1394 ; OSTmr_Link + 44
        0x00001388:    4e11        .N      LDR      r6,[pc,#68] ; [0x13d0] = 0x20000064
        0x0000138a:    69c5        .i      LDR      r5,[r0,#0x1c]
        0x0000138c:    6836        6h      LDR      r6,[r6,#0]
        0x0000138e:    19ad        ..      ADDS     r5,r5,r6
        0x00001390:    6145        Ea      STR      r5,[r0,#0x14]
        0x00001392:    e004        ..      B        0x139e ; OSTmr_Link + 54
        0x00001394:    4e0e        .N      LDR      r6,[pc,#56] ; [0x13d0] = 0x20000064
        0x00001396:    6985        .i      LDR      r5,[r0,#0x18]
        0x00001398:    6836        6h      LDR      r6,[r6,#0]
        0x0000139a:    19ad        ..      ADDS     r5,r5,r6
        0x0000139c:    6145        Ea      STR      r5,[r0,#0x14]
        0x0000139e:    6945        Ei      LDR      r5,[r0,#0x14]
        0x000013a0:    076c        l.      LSLS     r4,r5,#29
        0x000013a2:    0f64        d.      LSRS     r4,r4,#29
        0x000013a4:    00e5        ..      LSLS     r5,r4,#3
        0x000013a6:    4e0b        .N      LDR      r6,[pc,#44] ; [0x13d4] = 0x200008cc
        0x000013a8:    19a9        ..      ADDS     r1,r5,r6
        0x000013aa:    680d        .h      LDR      r5,[r1,#0]
        0x000013ac:    2d00        .-      CMP      r5,#0
        0x000013ae:    d104        ..      BNE      0x13ba ; OSTmr_Link + 82
        0x000013b0:    6008        .`      STR      r0,[r1,#0]
        0x000013b2:    60c5        .`      STR      r5,[r0,#0xc]
        0x000013b4:    2501        .%      MOVS     r5,#1
        0x000013b6:    808d        ..      STRH     r5,[r1,#4]
        0x000013b8:    e006        ..      B        0x13c8 ; OSTmr_Link + 96
        0x000013ba:    680a        .h      LDR      r2,[r1,#0]
        0x000013bc:    6008        .`      STR      r0,[r1,#0]
        0x000013be:    60c2        .`      STR      r2,[r0,#0xc]
        0x000013c0:    6110        .a      STR      r0,[r2,#0x10]
        0x000013c2:    888d        ..      LDRH     r5,[r1,#4]
        0x000013c4:    1c6d        m.      ADDS     r5,r5,#1
        0x000013c6:    808d        ..      STRH     r5,[r1,#4]
        0x000013c8:    2500        .%      MOVS     r5,#0
        0x000013ca:    6105        .a      STR      r5,[r0,#0x10]
        0x000013cc:    bd70        p.      POP      {r4-r6,pc}
    $d
        0x000013ce:    0000        ..      DCW    0
        0x000013d0:    20000064    d..     DCD    536871012
        0x000013d4:    200008cc    ...     DCD    536873164
    $t
    i.OSTmr_Task
    OSTmr_Task
        0x000013d8:    b51c        ..      PUSH     {r2-r4,lr}
        0x000013da:    bf00        ..      NOP      
        0x000013dc:    bf00        ..      NOP      
        0x000013de:    aa01        ..      ADD      r2,sp,#4
        0x000013e0:    2100        .!      MOVS     r1,#0
        0x000013e2:    481b        .H      LDR      r0,[pc,#108] ; [0x1450] = 0x2000006c
        0x000013e4:    6800        .h      LDR      r0,[r0,#0]
        0x000013e6:    f7fffb0b    ....    BL       OSSemPend ; 0xa00
        0x000013ea:    f7fffa89    ....    BL       OSSchedLock ; 0x900
        0x000013ee:    4819        .H      LDR      r0,[pc,#100] ; [0x1454] = 0x20000064
        0x000013f0:    6800        .h      LDR      r0,[r0,#0]
        0x000013f2:    1c40        @.      ADDS     r0,r0,#1
        0x000013f4:    4917        .I      LDR      r1,[pc,#92] ; [0x1454] = 0x20000064
        0x000013f6:    6008        .`      STR      r0,[r1,#0]
        0x000013f8:    4608        .F      MOV      r0,r1
        0x000013fa:    6800        .h      LDR      r0,[r0,#0]
        0x000013fc:    0740        @.      LSLS     r0,r0,#29
        0x000013fe:    0f40        @.      LSRS     r0,r0,#29
        0x00001400:    9000        ..      STR      r0,[sp,#0]
        0x00001402:    9800        ..      LDR      r0,[sp,#0]
        0x00001404:    00c0        ..      LSLS     r0,r0,#3
        0x00001406:    4914        .I      LDR      r1,[pc,#80] ; [0x1458] = 0x200008cc
        0x00001408:    1847        G.      ADDS     r7,r0,r1
        0x0000140a:    683c        <h      LDR      r4,[r7,#0]
        0x0000140c:    e01b        ..      B        0x1446 ; OSTmr_Task + 110
        0x0000140e:    68e6        .h      LDR      r6,[r4,#0xc]
        0x00001410:    4910        .I      LDR      r1,[pc,#64] ; [0x1454] = 0x20000064
        0x00001412:    6960        `i      LDR      r0,[r4,#0x14]
        0x00001414:    6809        .h      LDR      r1,[r1,#0]
        0x00001416:    4288        .B      CMP      r0,r1
        0x00001418:    d114        ..      BNE      0x1444 ; OSTmr_Task + 108
        0x0000141a:    4620         F      MOV      r0,r4
        0x0000141c:    f000f81e    ....    BL       OSTmr_Unlink ; 0x145c
        0x00001420:    2024        $       MOVS     r0,#0x24
        0x00001422:    5d00        .]      LDRB     r0,[r0,r4]
        0x00001424:    2802        .(      CMP      r0,#2
        0x00001426:    d104        ..      BNE      0x1432 ; OSTmr_Task + 90
        0x00001428:    2101        .!      MOVS     r1,#1
        0x0000142a:    4620         F      MOV      r0,r4
        0x0000142c:    f7ffff9c    ....    BL       OSTmr_Link ; 0x1368
        0x00001430:    e002        ..      B        0x1438 ; OSTmr_Task + 96
        0x00001432:    2102        .!      MOVS     r1,#2
        0x00001434:    2025        %       MOVS     r0,#0x25
        0x00001436:    5501        .U      STRB     r1,[r0,r4]
        0x00001438:    6865        eh      LDR      r5,[r4,#4]
        0x0000143a:    2d00        .-      CMP      r5,#0
        0x0000143c:    d002        ..      BEQ      0x1444 ; OSTmr_Task + 108
        0x0000143e:    4620         F      MOV      r0,r4
        0x00001440:    68a1        .h      LDR      r1,[r4,#8]
        0x00001442:    47a8        .G      BLX      r5
        0x00001444:    4634        4F      MOV      r4,r6
        0x00001446:    2c00        .,      CMP      r4,#0
        0x00001448:    d1e1        ..      BNE      0x140e ; OSTmr_Task + 54
        0x0000144a:    f7fffa79    ..y.    BL       OSSchedUnlock ; 0x940
        0x0000144e:    e7c6        ..      B        0x13de ; OSTmr_Task + 6
    $d
        0x00001450:    2000006c    l..     DCD    536871020
        0x00001454:    20000064    d..     DCD    536871012
        0x00001458:    200008cc    ...     DCD    536873164
    $t
    i.OSTmr_Unlink
    OSTmr_Unlink
        0x0000145c:    b570        p.      PUSH     {r4-r6,lr}
        0x0000145e:    6945        Ei      LDR      r5,[r0,#0x14]
        0x00001460:    076c        l.      LSLS     r4,r5,#29
        0x00001462:    0f64        d.      LSRS     r4,r4,#29
        0x00001464:    00e5        ..      LSLS     r5,r4,#3
        0x00001466:    4e0e        .N      LDR      r6,[pc,#56] ; [0x14a0] = 0x200008cc
        0x00001468:    19aa        ..      ADDS     r2,r5,r6
        0x0000146a:    6815        .h      LDR      r5,[r2,#0]
        0x0000146c:    4285        .B      CMP      r5,r0
        0x0000146e:    d106        ..      BNE      0x147e ; OSTmr_Unlink + 34
        0x00001470:    68c1        .h      LDR      r1,[r0,#0xc]
        0x00001472:    6011        .`      STR      r1,[r2,#0]
        0x00001474:    2900        .)      CMP      r1,#0
        0x00001476:    d008        ..      BEQ      0x148a ; OSTmr_Unlink + 46
        0x00001478:    2500        .%      MOVS     r5,#0
        0x0000147a:    610d        .a      STR      r5,[r1,#0x10]
        0x0000147c:    e005        ..      B        0x148a ; OSTmr_Unlink + 46
        0x0000147e:    6901        .i      LDR      r1,[r0,#0x10]
        0x00001480:    68c3        .h      LDR      r3,[r0,#0xc]
        0x00001482:    60cb        .`      STR      r3,[r1,#0xc]
        0x00001484:    2b00        .+      CMP      r3,#0
        0x00001486:    d000        ..      BEQ      0x148a ; OSTmr_Unlink + 46
        0x00001488:    6119        .a      STR      r1,[r3,#0x10]
        0x0000148a:    2601        .&      MOVS     r6,#1
        0x0000148c:    2525        %%      MOVS     r5,#0x25
        0x0000148e:    542e        .T      STRB     r6,[r5,r0]
        0x00001490:    2500        .%      MOVS     r5,#0
        0x00001492:    60c5        .`      STR      r5,[r0,#0xc]
        0x00001494:    6105        .a      STR      r5,[r0,#0x10]
        0x00001496:    8895        ..      LDRH     r5,[r2,#4]
        0x00001498:    1e6d        m.      SUBS     r5,r5,#1
        0x0000149a:    8095        ..      STRH     r5,[r2,#4]
        0x0000149c:    bd70        p.      POP      {r4-r6,pc}
    $d
        0x0000149e:    0000        ..      DCW    0
        0x000014a0:    200008cc    ...     DCD    536873164
    $t
    i.OS_CPU_SysTickHandler
    OS_CPU_SysTickHandler
        0x000014a4:    b510        ..      PUSH     {r4,lr}
        0x000014a6:    f7fefe37    ..7.    BL       OS_CPU_SR_Save ; 0x118
        0x000014aa:    4604        .F      MOV      r4,r0
        0x000014ac:    4806        .H      LDR      r0,[pc,#24] ; [0x14c8] = 0x20000035
        0x000014ae:    7800        .x      LDRB     r0,[r0,#0]
        0x000014b0:    1c40        @.      ADDS     r0,r0,#1
        0x000014b2:    4905        .I      LDR      r1,[pc,#20] ; [0x14c8] = 0x20000035
        0x000014b4:    7008        .p      STRB     r0,[r1,#0]
        0x000014b6:    4620         F      MOV      r0,r4
        0x000014b8:    f7fefe32    ..2.    BL       OS_CPU_SR_Restore ; 0x120
        0x000014bc:    f7fffe1a    ....    BL       OSTimeTick ; 0x10f4
        0x000014c0:    f7fff8f2    ....    BL       OSIntExit ; 0x6a8
        0x000014c4:    bd10        ..      POP      {r4,pc}
    $d
        0x000014c6:    0000        ..      DCW    0
        0x000014c8:    20000035    5..     DCD    536870965
    $t
    i.OS_CPU_SysTickInit
    OS_CPU_SysTickInit
        0x000014cc:    b570        p.      PUSH     {r4-r6,lr}
        0x000014ce:    4604        .F      MOV      r4,r0
        0x000014d0:    4625        %F      MOV      r5,r4
        0x000014d2:    480a        .H      LDR      r0,[pc,#40] ; [0x14fc] = 0xffffff
        0x000014d4:    4285        .B      CMP      r5,r0
        0x000014d6:    d900        ..      BLS      0x14da ; OS_CPU_SysTickInit + 14
        0x000014d8:    e00e        ..      B        0x14f8 ; OS_CPU_SysTickInit + 44
        0x000014da:    0228        (.      LSLS     r0,r5,#8
        0x000014dc:    0a00        ..      LSRS     r0,r0,#8
        0x000014de:    1e40        @.      SUBS     r0,r0,#1
        0x000014e0:    4907        .I      LDR      r1,[pc,#28] ; [0x1500] = 0xe000e000
        0x000014e2:    6148        Ha      STR      r0,[r1,#0x14]
        0x000014e4:    2103        .!      MOVS     r1,#3
        0x000014e6:    1f08        ..      SUBS     r0,r1,#4
        0x000014e8:    f7feff96    ....    BL       NVIC_SetPriority ; 0x418
        0x000014ec:    2000        .       MOVS     r0,#0
        0x000014ee:    4904        .I      LDR      r1,[pc,#16] ; [0x1500] = 0xe000e000
        0x000014f0:    6188        .a      STR      r0,[r1,#0x18]
        0x000014f2:    2007        .       MOVS     r0,#7
        0x000014f4:    6108        .a      STR      r0,[r1,#0x10]
        0x000014f6:    bf00        ..      NOP      
        0x000014f8:    bd70        p.      POP      {r4-r6,pc}
    $d
        0x000014fa:    0000        ..      DCW    0
        0x000014fc:    00ffffff    ....    DCD    16777215
        0x00001500:    e000e000    ....    DCD    3758153728
    $t
    i.OS_Dummy
    OS_Dummy
        0x00001504:    4770        pG      BX       lr
        0x00001506:    0000        ..      MOVS     r0,r0
    i.OS_EventTaskRdy
    OS_EventTaskRdy
        0x00001508:    b5ff        ..      PUSH     {r0-r7,lr}
        0x0000150a:    b082        ..      SUB      sp,sp,#8
        0x0000150c:    4605        .F      MOV      r5,r0
        0x0000150e:    460f        .F      MOV      r7,r1
        0x00001510:    7aa8        .z      LDRB     r0,[r5,#0xa]
        0x00001512:    491f        .I      LDR      r1,[pc,#124] ; [0x1590] = 0x204c
        0x00001514:    5c0e        .\      LDRB     r6,[r1,r0]
        0x00001516:    4628        (F      MOV      r0,r5
        0x00001518:    300b        .0      ADDS     r0,r0,#0xb
        0x0000151a:    5d80        .]      LDRB     r0,[r0,r6]
        0x0000151c:    5c08        .\      LDRB     r0,[r1,r0]
        0x0000151e:    9001        ..      STR      r0,[sp,#4]
        0x00001520:    00f1        ..      LSLS     r1,r6,#3
        0x00001522:    9801        ..      LDR      r0,[sp,#4]
        0x00001524:    1808        ..      ADDS     r0,r1,r0
        0x00001526:    b2c0        ..      UXTB     r0,r0
        0x00001528:    9000        ..      STR      r0,[sp,#0]
        0x0000152a:    9800        ..      LDR      r0,[sp,#0]
        0x0000152c:    0080        ..      LSLS     r0,r0,#2
        0x0000152e:    4919        .I      LDR      r1,[pc,#100] ; [0x1594] = 0x20000394
        0x00001530:    580c        .X      LDR      r4,[r1,r0]
        0x00001532:    2000        .       MOVS     r0,#0
        0x00001534:    6320         c      STR      r0,[r4,#0x30]
        0x00001536:    6267        gb      STR      r7,[r4,#0x24]
        0x00001538:    2034        4       MOVS     r0,#0x34
        0x0000153a:    5d01        .]      LDRB     r1,[r0,r4]
        0x0000153c:    9804        ..      LDR      r0,[sp,#0x10]
        0x0000153e:    4381        .C      BICS     r1,r1,r0
        0x00001540:    2034        4       MOVS     r0,#0x34
        0x00001542:    5501        .U      STRB     r1,[r0,r4]
        0x00001544:    2135        5!      MOVS     r1,#0x35
        0x00001546:    9805        ..      LDR      r0,[sp,#0x14]
        0x00001548:    5508        .U      STRB     r0,[r1,r4]
        0x0000154a:    2034        4       MOVS     r0,#0x34
        0x0000154c:    5d00        .]      LDRB     r0,[r0,r4]
        0x0000154e:    2108        .!      MOVS     r1,#8
        0x00001550:    4208        .B      TST      r0,r1
        0x00001552:    d10d        ..      BNE      0x1570 ; OS_EventTaskRdy + 104
        0x00001554:    203a        :       MOVS     r0,#0x3a
        0x00001556:    5d00        .]      LDRB     r0,[r0,r4]
        0x00001558:    490f        .I      LDR      r1,[pc,#60] ; [0x1598] = 0x20000039
        0x0000155a:    7809        .x      LDRB     r1,[r1,#0]
        0x0000155c:    4308        .C      ORRS     r0,r0,r1
        0x0000155e:    490e        .I      LDR      r1,[pc,#56] ; [0x1598] = 0x20000039
        0x00001560:    7008        .p      STRB     r0,[r1,#0]
        0x00001562:    480e        .H      LDR      r0,[pc,#56] ; [0x159c] = 0x2000003a
        0x00001564:    5d80        .]      LDRB     r0,[r0,r6]
        0x00001566:    2139        9!      MOVS     r1,#0x39
        0x00001568:    5d09        .]      LDRB     r1,[r1,r4]
        0x0000156a:    4308        .C      ORRS     r0,r0,r1
        0x0000156c:    490b        .I      LDR      r1,[pc,#44] ; [0x159c] = 0x2000003a
        0x0000156e:    5588        .U      STRB     r0,[r1,r6]
        0x00001570:    4629        )F      MOV      r1,r5
        0x00001572:    4620         F      MOV      r0,r4
        0x00001574:    f000f814    ....    BL       OS_EventTaskRemove ; 0x15a0
        0x00001578:    6a20         j      LDR      r0,[r4,#0x20]
        0x0000157a:    2800        .(      CMP      r0,#0
        0x0000157c:    d004        ..      BEQ      0x1588 ; OS_EventTaskRdy + 128
        0x0000157e:    4620         F      MOV      r0,r4
        0x00001580:    6a21        !j      LDR      r1,[r4,#0x20]
        0x00001582:    f000f823    ..#.    BL       OS_EventTaskRemoveMulti ; 0x15cc
        0x00001586:    61e5        .a      STR      r5,[r4,#0x1c]
        0x00001588:    9800        ..      LDR      r0,[sp,#0]
        0x0000158a:    b006        ..      ADD      sp,sp,#0x18
        0x0000158c:    bdf0        ..      POP      {r4-r7,pc}
    $d
        0x0000158e:    0000        ..      DCW    0
        0x00001590:    0000204c    L ..    DCD    8268
        0x00001594:    20000394    ...     DCD    536871828
        0x00001598:    20000039    9..     DCD    536870969
        0x0000159c:    2000003a    :..     DCD    536870970
    $t
    i.OS_EventTaskRemove
    OS_EventTaskRemove
        0x000015a0:    b510        ..      PUSH     {r4,lr}
        0x000015a2:    2338        8#      MOVS     r3,#0x38
        0x000015a4:    5c1a        .\      LDRB     r2,[r3,r0]
        0x000015a6:    460b        .F      MOV      r3,r1
        0x000015a8:    330b        .3      ADDS     r3,r3,#0xb
        0x000015aa:    5c9b        .\      LDRB     r3,[r3,r2]
        0x000015ac:    2439        9$      MOVS     r4,#0x39
        0x000015ae:    5c24        $\      LDRB     r4,[r4,r0]
        0x000015b0:    43a3        .C      BICS     r3,r3,r4
        0x000015b2:    460c        .F      MOV      r4,r1
        0x000015b4:    340b        .4      ADDS     r4,r4,#0xb
        0x000015b6:    54a3        .T      STRB     r3,[r4,r2]
        0x000015b8:    4623        #F      MOV      r3,r4
        0x000015ba:    5c9b        .\      LDRB     r3,[r3,r2]
        0x000015bc:    2b00        .+      CMP      r3,#0
        0x000015be:    d104        ..      BNE      0x15ca ; OS_EventTaskRemove + 42
        0x000015c0:    7a8b        .z      LDRB     r3,[r1,#0xa]
        0x000015c2:    243a        :$      MOVS     r4,#0x3a
        0x000015c4:    5c24        $\      LDRB     r4,[r4,r0]
        0x000015c6:    43a3        .C      BICS     r3,r3,r4
        0x000015c8:    728b        .r      STRB     r3,[r1,#0xa]
        0x000015ca:    bd10        ..      POP      {r4,pc}
    i.OS_EventTaskRemoveMulti
    OS_EventTaskRemoveMulti
        0x000015cc:    b5f8        ..      PUSH     {r3-r7,lr}
        0x000015ce:    4602        .F      MOV      r2,r0
        0x000015d0:    2638        8&      MOVS     r6,#0x38
        0x000015d2:    5cb4        .\      LDRB     r4,[r6,r2]
        0x000015d4:    263a        :&      MOVS     r6,#0x3a
        0x000015d6:    5cb5        .\      LDRB     r5,[r6,r2]
        0x000015d8:    2639        9&      MOVS     r6,#0x39
        0x000015da:    5cb6        .\      LDRB     r6,[r6,r2]
        0x000015dc:    9600        ..      STR      r6,[sp,#0]
        0x000015de:    460b        .F      MOV      r3,r1
        0x000015e0:    6818        .h      LDR      r0,[r3,#0]
        0x000015e2:    e010        ..      B        0x1606 ; OS_EventTaskRemoveMulti + 58
        0x000015e4:    4606        .F      MOV      r6,r0
        0x000015e6:    360b        .6      ADDS     r6,r6,#0xb
        0x000015e8:    5d36        6]      LDRB     r6,[r6,r4]
        0x000015ea:    9f00        ..      LDR      r7,[sp,#0]
        0x000015ec:    43be        .C      BICS     r6,r6,r7
        0x000015ee:    4607        .F      MOV      r7,r0
        0x000015f0:    370b        .7      ADDS     r7,r7,#0xb
        0x000015f2:    553e        >U      STRB     r6,[r7,r4]
        0x000015f4:    463e        >F      MOV      r6,r7
        0x000015f6:    5d36        6]      LDRB     r6,[r6,r4]
        0x000015f8:    2e00        ..      CMP      r6,#0
        0x000015fa:    d102        ..      BNE      0x1602 ; OS_EventTaskRemoveMulti + 54
        0x000015fc:    7a86        .z      LDRB     r6,[r0,#0xa]
        0x000015fe:    43ae        .C      BICS     r6,r6,r5
        0x00001600:    7286        .r      STRB     r6,[r0,#0xa]
        0x00001602:    1d1b        ..      ADDS     r3,r3,#4
        0x00001604:    6818        .h      LDR      r0,[r3,#0]
        0x00001606:    2800        .(      CMP      r0,#0
        0x00001608:    d1ec        ..      BNE      0x15e4 ; OS_EventTaskRemoveMulti + 24
        0x0000160a:    bdf8        ..      POP      {r3-r7,pc}
    i.OS_EventTaskWait
    OS_EventTaskWait
        0x0000160c:    b510        ..      PUSH     {r4,lr}
        0x0000160e:    4a1c        .J      LDR      r2,[pc,#112] ; [0x1680] = 0x20000044
        0x00001610:    6812        .h      LDR      r2,[r2,#0]
        0x00001612:    61d0        .a      STR      r0,[r2,#0x1c]
        0x00001614:    4a1a        .J      LDR      r2,[pc,#104] ; [0x1680] = 0x20000044
        0x00001616:    6812        .h      LDR      r2,[r2,#0]
        0x00001618:    3220         2      ADDS     r2,r2,#0x20
        0x0000161a:    7e13        .~      LDRB     r3,[r2,#0x18]
        0x0000161c:    4602        .F      MOV      r2,r0
        0x0000161e:    320b        .2      ADDS     r2,r2,#0xb
        0x00001620:    5cd2        .\      LDRB     r2,[r2,r3]
        0x00001622:    4b17        .K      LDR      r3,[pc,#92] ; [0x1680] = 0x20000044
        0x00001624:    681b        .h      LDR      r3,[r3,#0]
        0x00001626:    3320         3      ADDS     r3,r3,#0x20
        0x00001628:    7e5b        [~      LDRB     r3,[r3,#0x19]
        0x0000162a:    431a        .C      ORRS     r2,r2,r3
        0x0000162c:    4b14        .K      LDR      r3,[pc,#80] ; [0x1680] = 0x20000044
        0x0000162e:    681b        .h      LDR      r3,[r3,#0]
        0x00001630:    3320         3      ADDS     r3,r3,#0x20
        0x00001632:    7e1c        .~      LDRB     r4,[r3,#0x18]
        0x00001634:    4603        .F      MOV      r3,r0
        0x00001636:    330b        .3      ADDS     r3,r3,#0xb
        0x00001638:    551a        .U      STRB     r2,[r3,r4]
        0x0000163a:    7a82        .z      LDRB     r2,[r0,#0xa]
        0x0000163c:    4b10        .K      LDR      r3,[pc,#64] ; [0x1680] = 0x20000044
        0x0000163e:    681b        .h      LDR      r3,[r3,#0]
        0x00001640:    3320         3      ADDS     r3,r3,#0x20
        0x00001642:    7e9b        .~      LDRB     r3,[r3,#0x1a]
        0x00001644:    431a        .C      ORRS     r2,r2,r3
        0x00001646:    7282        .r      STRB     r2,[r0,#0xa]
        0x00001648:    4a0d        .J      LDR      r2,[pc,#52] ; [0x1680] = 0x20000044
        0x0000164a:    6812        .h      LDR      r2,[r2,#0]
        0x0000164c:    3220         2      ADDS     r2,r2,#0x20
        0x0000164e:    7e11        .~      LDRB     r1,[r2,#0x18]
        0x00001650:    4a0c        .J      LDR      r2,[pc,#48] ; [0x1684] = 0x2000003a
        0x00001652:    5c52        R\      LDRB     r2,[r2,r1]
        0x00001654:    4b0a        .K      LDR      r3,[pc,#40] ; [0x1680] = 0x20000044
        0x00001656:    681b        .h      LDR      r3,[r3,#0]
        0x00001658:    3320         3      ADDS     r3,r3,#0x20
        0x0000165a:    7e5b        [~      LDRB     r3,[r3,#0x19]
        0x0000165c:    439a        .C      BICS     r2,r2,r3
        0x0000165e:    4b09        .K      LDR      r3,[pc,#36] ; [0x1684] = 0x2000003a
        0x00001660:    545a        ZT      STRB     r2,[r3,r1]
        0x00001662:    461a        .F      MOV      r2,r3
        0x00001664:    5c52        R\      LDRB     r2,[r2,r1]
        0x00001666:    2a00        .*      CMP      r2,#0
        0x00001668:    d108        ..      BNE      0x167c ; OS_EventTaskWait + 112
        0x0000166a:    4a05        .J      LDR      r2,[pc,#20] ; [0x1680] = 0x20000044
        0x0000166c:    6812        .h      LDR      r2,[r2,#0]
        0x0000166e:    3220         2      ADDS     r2,r2,#0x20
        0x00001670:    7e93        .~      LDRB     r3,[r2,#0x1a]
        0x00001672:    4a05        .J      LDR      r2,[pc,#20] ; [0x1688] = 0x20000039
        0x00001674:    7812        .x      LDRB     r2,[r2,#0]
        0x00001676:    439a        .C      BICS     r2,r2,r3
        0x00001678:    4b03        .K      LDR      r3,[pc,#12] ; [0x1688] = 0x20000039
        0x0000167a:    701a        .p      STRB     r2,[r3,#0]
        0x0000167c:    bd10        ..      POP      {r4,pc}
    $d
        0x0000167e:    0000        ..      DCW    0
        0x00001680:    20000044    D..     DCD    536870980
        0x00001684:    2000003a    :..     DCD    536870970
        0x00001688:    20000039    9..     DCD    536870969
    $t
    i.OS_EventWaitListInit
    OS_EventWaitListInit
        0x0000168c:    4601        .F      MOV      r1,r0
        0x0000168e:    2200        ."      MOVS     r2,#0
        0x00001690:    728a        .r      STRB     r2,[r1,#0xa]
        0x00001692:    2000        .       MOVS     r0,#0
        0x00001694:    e005        ..      B        0x16a2 ; OS_EventWaitListInit + 22
        0x00001696:    2300        .#      MOVS     r3,#0
        0x00001698:    460a        .F      MOV      r2,r1
        0x0000169a:    320b        .2      ADDS     r2,r2,#0xb
        0x0000169c:    5413        .T      STRB     r3,[r2,r0]
        0x0000169e:    1c42        B.      ADDS     r2,r0,#1
        0x000016a0:    b2d0        ..      UXTB     r0,r2
        0x000016a2:    2802        .(      CMP      r0,#2
        0x000016a4:    d3f7        ..      BCC      0x1696 ; OS_EventWaitListInit + 10
        0x000016a6:    4770        pG      BX       lr
    i.OS_FlagInit
    OS_FlagInit
        0x000016a8:    b570        p.      PUSH     {r4-r6,lr}
        0x000016aa:    2150        P!      MOVS     r1,#0x50
        0x000016ac:    4810        .H      LDR      r0,[pc,#64] ; [0x16f0] = 0x200002cc
        0x000016ae:    f000f939    ..9.    BL       OS_MemClr ; 0x1924
        0x000016b2:    2400        .$      MOVS     r4,#0
        0x000016b4:    e00d        ..      B        0x16d2 ; OS_FlagInit + 42
        0x000016b6:    1c60        `.      ADDS     r0,r4,#1
        0x000016b8:    b285        ..      UXTH     r5,r0
        0x000016ba:    0120         .      LSLS     r0,r4,#4
        0x000016bc:    490c        .I      LDR      r1,[pc,#48] ; [0x16f0] = 0x200002cc
        0x000016be:    1843        C.      ADDS     r3,r0,r1
        0x000016c0:    0128        (.      LSLS     r0,r5,#4
        0x000016c2:    1846        F.      ADDS     r6,r0,r1
        0x000016c4:    2000        .       MOVS     r0,#0
        0x000016c6:    7018        .p      STRB     r0,[r3,#0]
        0x000016c8:    605e        ^`      STR      r6,[r3,#4]
        0x000016ca:    a00a        ..      ADR      r0,{pc}+0x2a ; 0x16f4
        0x000016cc:    60d8        .`      STR      r0,[r3,#0xc]
        0x000016ce:    1c60        `.      ADDS     r0,r4,#1
        0x000016d0:    b284        ..      UXTH     r4,r0
        0x000016d2:    2c04        .,      CMP      r4,#4
        0x000016d4:    d3ef        ..      BCC      0x16b6 ; OS_FlagInit + 14
        0x000016d6:    0120         .      LSLS     r0,r4,#4
        0x000016d8:    4905        .I      LDR      r1,[pc,#20] ; [0x16f0] = 0x200002cc
        0x000016da:    1843        C.      ADDS     r3,r0,r1
        0x000016dc:    2000        .       MOVS     r0,#0
        0x000016de:    7018        .p      STRB     r0,[r3,#0]
        0x000016e0:    6058        X`      STR      r0,[r3,#4]
        0x000016e2:    a004        ..      ADR      r0,{pc}+0x12 ; 0x16f4
        0x000016e4:    60d8        .`      STR      r0,[r3,#0xc]
        0x000016e6:    4608        .F      MOV      r0,r1
        0x000016e8:    4903        .I      LDR      r1,[pc,#12] ; [0x16f8] = 0x20000024
        0x000016ea:    6008        .`      STR      r0,[r1,#0]
        0x000016ec:    bd70        p.      POP      {r4-r6,pc}
    $d
        0x000016ee:    0000        ..      DCW    0
        0x000016f0:    200002cc    ...     DCD    536871628
        0x000016f4:    0000003f    ?...    DCD    63
        0x000016f8:    20000024    $..     DCD    536870948
    $t
    i.OS_FlagUnlink
    OS_FlagUnlink
        0x000016fc:    b530        0.      PUSH     {r4,r5,lr}
        0x000016fe:    4601        .F      MOV      r1,r0
        0x00001700:    684a        Jh      LDR      r2,[r1,#4]
        0x00001702:    6808        .h      LDR      r0,[r1,#0]
        0x00001704:    2a00        .*      CMP      r2,#0
        0x00001706:    d106        ..      BNE      0x1716 ; OS_FlagUnlink + 26
        0x00001708:    68cc        .h      LDR      r4,[r1,#0xc]
        0x0000170a:    6060        ``      STR      r0,[r4,#4]
        0x0000170c:    2800        .(      CMP      r0,#0
        0x0000170e:    d006        ..      BEQ      0x171e ; OS_FlagUnlink + 34
        0x00001710:    2500        .%      MOVS     r5,#0
        0x00001712:    6045        E`      STR      r5,[r0,#4]
        0x00001714:    e003        ..      B        0x171e ; OS_FlagUnlink + 34
        0x00001716:    6010        .`      STR      r0,[r2,#0]
        0x00001718:    2800        .(      CMP      r0,#0
        0x0000171a:    d000        ..      BEQ      0x171e ; OS_FlagUnlink + 34
        0x0000171c:    6042        B`      STR      r2,[r0,#4]
        0x0000171e:    688b        .h      LDR      r3,[r1,#8]
        0x00001720:    2500        .%      MOVS     r5,#0
        0x00001722:    629d        .b      STR      r5,[r3,#0x28]
        0x00001724:    bd30        0.      POP      {r4,r5,pc}
        0x00001726:    0000        ..      MOVS     r0,r0
    i.OS_InitEventList
    OS_InitEventList
        0x00001728:    b570        p.      PUSH     {r4-r6,lr}
        0x0000172a:    21c8        .!      MOVS     r1,#0xc8
        0x0000172c:    4811        .H      LDR      r0,[pc,#68] ; [0x1774] = 0x20000204
        0x0000172e:    f000f8f9    ....    BL       OS_MemClr ; 0x1924
        0x00001732:    2400        .$      MOVS     r4,#0
        0x00001734:    e00f        ..      B        0x1756 ; OS_InitEventList + 46
        0x00001736:    1c60        `.      ADDS     r0,r4,#1
        0x00001738:    b285        ..      UXTH     r5,r0
        0x0000173a:    2014        .       MOVS     r0,#0x14
        0x0000173c:    4360        `C      MULS     r0,r4,r0
        0x0000173e:    490d        .I      LDR      r1,[pc,#52] ; [0x1774] = 0x20000204
        0x00001740:    1843        C.      ADDS     r3,r0,r1
        0x00001742:    2014        .       MOVS     r0,#0x14
        0x00001744:    4368        hC      MULS     r0,r5,r0
        0x00001746:    1846        F.      ADDS     r6,r0,r1
        0x00001748:    2000        .       MOVS     r0,#0
        0x0000174a:    7018        .p      STRB     r0,[r3,#0]
        0x0000174c:    605e        ^`      STR      r6,[r3,#4]
        0x0000174e:    a00a        ..      ADR      r0,{pc}+0x2a ; 0x1778
        0x00001750:    6118        .a      STR      r0,[r3,#0x10]
        0x00001752:    1c60        `.      ADDS     r0,r4,#1
        0x00001754:    b284        ..      UXTH     r4,r0
        0x00001756:    2c09        .,      CMP      r4,#9
        0x00001758:    d3ed        ..      BCC      0x1736 ; OS_InitEventList + 14
        0x0000175a:    2014        .       MOVS     r0,#0x14
        0x0000175c:    4360        `C      MULS     r0,r4,r0
        0x0000175e:    4905        .I      LDR      r1,[pc,#20] ; [0x1774] = 0x20000204
        0x00001760:    1843        C.      ADDS     r3,r0,r1
        0x00001762:    2000        .       MOVS     r0,#0
        0x00001764:    7018        .p      STRB     r0,[r3,#0]
        0x00001766:    6058        X`      STR      r0,[r3,#4]
        0x00001768:    a003        ..      ADR      r0,{pc}+0x10 ; 0x1778
        0x0000176a:    6118        .a      STR      r0,[r3,#0x10]
        0x0000176c:    4608        .F      MOV      r0,r1
        0x0000176e:    4903        .I      LDR      r1,[pc,#12] ; [0x177c] = 0x20000020
        0x00001770:    6008        .`      STR      r0,[r1,#0]
        0x00001772:    bd70        p.      POP      {r4-r6,pc}
    $d
        0x00001774:    20000204    ...     DCD    536871428
        0x00001778:    0000003f    ?...    DCD    63
        0x0000177c:    20000020     ..     DCD    536870944
    $t
    i.OS_InitMisc
    OS_InitMisc
        0x00001780:    2000        .       MOVS     r0,#0
        0x00001782:    490a        .I      LDR      r1,[pc,#40] ; [0x17ac] = 0x2000005c
        0x00001784:    6008        .`      STR      r0,[r1,#0]
        0x00001786:    490a        .I      LDR      r1,[pc,#40] ; [0x17b0] = 0x20000035
        0x00001788:    7008        .p      STRB     r0,[r1,#0]
        0x0000178a:    490a        .I      LDR      r1,[pc,#40] ; [0x17b4] = 0x20000036
        0x0000178c:    7008        .p      STRB     r0,[r1,#0]
        0x0000178e:    490a        .I      LDR      r1,[pc,#40] ; [0x17b8] = 0x2000003d
        0x00001790:    7008        .p      STRB     r0,[r1,#0]
        0x00001792:    490a        .I      LDR      r1,[pc,#40] ; [0x17bc] = 0x2000003c
        0x00001794:    7008        .p      STRB     r0,[r1,#0]
        0x00001796:    490a        .I      LDR      r1,[pc,#40] ; [0x17c0] = 0x2000001c
        0x00001798:    6008        .`      STR      r0,[r1,#0]
        0x0000179a:    490a        .I      LDR      r1,[pc,#40] ; [0x17c4] = 0x20000040
        0x0000179c:    6008        .`      STR      r0,[r1,#0]
        0x0000179e:    490a        .I      LDR      r1,[pc,#40] ; [0x17c8] = 0x20000030
        0x000017a0:    6008        .`      STR      r0,[r1,#0]
        0x000017a2:    490a        .I      LDR      r1,[pc,#40] ; [0x17cc] = 0x2000002c
        0x000017a4:    6008        .`      STR      r0,[r1,#0]
        0x000017a6:    490a        .I      LDR      r1,[pc,#40] ; [0x17d0] = 0x20000034
        0x000017a8:    7008        .p      STRB     r0,[r1,#0]
        0x000017aa:    4770        pG      BX       lr
    $d
        0x000017ac:    2000005c    \..     DCD    536871004
        0x000017b0:    20000035    5..     DCD    536870965
        0x000017b4:    20000036    6..     DCD    536870966
        0x000017b8:    2000003d    =..     DCD    536870973
        0x000017bc:    2000003c    <..     DCD    536870972
        0x000017c0:    2000001c    ...     DCD    536870940
        0x000017c4:    20000040    @..     DCD    536870976
        0x000017c8:    20000030    0..     DCD    536870960
        0x000017cc:    2000002c    ,..     DCD    536870956
        0x000017d0:    20000034    4..     DCD    536870964
    $t
    i.OS_InitRdyList
    OS_InitRdyList
        0x000017d4:    2100        .!      MOVS     r1,#0
        0x000017d6:    4a0a        .J      LDR      r2,[pc,#40] ; [0x1800] = 0x20000039
        0x000017d8:    7011        .p      STRB     r1,[r2,#0]
        0x000017da:    2000        .       MOVS     r0,#0
        0x000017dc:    e004        ..      B        0x17e8 ; OS_InitRdyList + 20
        0x000017de:    2100        .!      MOVS     r1,#0
        0x000017e0:    4a08        .J      LDR      r2,[pc,#32] ; [0x1804] = 0x2000003a
        0x000017e2:    5411        .T      STRB     r1,[r2,r0]
        0x000017e4:    1c41        A.      ADDS     r1,r0,#1
        0x000017e6:    b2c8        ..      UXTB     r0,r1
        0x000017e8:    2802        .(      CMP      r0,#2
        0x000017ea:    d3f8        ..      BCC      0x17de ; OS_InitRdyList + 10
        0x000017ec:    2100        .!      MOVS     r1,#0
        0x000017ee:    4a06        .J      LDR      r2,[pc,#24] ; [0x1808] = 0x20000037
        0x000017f0:    7011        .p      STRB     r1,[r2,#0]
        0x000017f2:    4a06        .J      LDR      r2,[pc,#24] ; [0x180c] = 0x20000038
        0x000017f4:    7011        .p      STRB     r1,[r2,#0]
        0x000017f6:    4a06        .J      LDR      r2,[pc,#24] ; [0x1810] = 0x2000004c
        0x000017f8:    6011        .`      STR      r1,[r2,#0]
        0x000017fa:    4a06        .J      LDR      r2,[pc,#24] ; [0x1814] = 0x20000044
        0x000017fc:    6011        .`      STR      r1,[r2,#0]
        0x000017fe:    4770        pG      BX       lr
    $d
        0x00001800:    20000039    9..     DCD    536870969
        0x00001804:    2000003a    :..     DCD    536870970
        0x00001808:    20000037    7..     DCD    536870967
        0x0000180c:    20000038    8..     DCD    536870968
        0x00001810:    2000004c    L..     DCD    536870988
        0x00001814:    20000044    D..     DCD    536870980
    $t
    i.OS_InitTCBList
    OS_InitTCBList
        0x00001818:    b570        p.      PUSH     {r4-r6,lr}
        0x0000181a:    2163        c!      MOVS     r1,#0x63
        0x0000181c:    00c9        ..      LSLS     r1,r1,#3
        0x0000181e:    4814        .H      LDR      r0,[pc,#80] ; [0x1870] = 0x200003c0
        0x00001820:    f000f880    ....    BL       OS_MemClr ; 0x1924
        0x00001824:    212c        ,!      MOVS     r1,#0x2c
        0x00001826:    4813        .H      LDR      r0,[pc,#76] ; [0x1874] = 0x20000394
        0x00001828:    f000f87c    ..|.    BL       OS_MemClr ; 0x1924
        0x0000182c:    2400        .$      MOVS     r4,#0
        0x0000182e:    e00d        ..      B        0x184c ; OS_InitTCBList + 52
        0x00001830:    1c60        `.      ADDS     r0,r4,#1
        0x00001832:    b2c5        ..      UXTB     r5,r0
        0x00001834:    2058        X       MOVS     r0,#0x58
        0x00001836:    4360        `C      MULS     r0,r4,r0
        0x00001838:    490d        .I      LDR      r1,[pc,#52] ; [0x1870] = 0x200003c0
        0x0000183a:    1843        C.      ADDS     r3,r0,r1
        0x0000183c:    2058        X       MOVS     r0,#0x58
        0x0000183e:    4368        hC      MULS     r0,r5,r0
        0x00001840:    1846        F.      ADDS     r6,r0,r1
        0x00001842:    615e        ^a      STR      r6,[r3,#0x14]
        0x00001844:    a00c        ..      ADR      r0,{pc}+0x34 ; 0x1878
        0x00001846:    6518        .e      STR      r0,[r3,#0x50]
        0x00001848:    1c60        `.      ADDS     r0,r4,#1
        0x0000184a:    b2c4        ..      UXTB     r4,r0
        0x0000184c:    2c08        .,      CMP      r4,#8
        0x0000184e:    d3ef        ..      BCC      0x1830 ; OS_InitTCBList + 24
        0x00001850:    2058        X       MOVS     r0,#0x58
        0x00001852:    4360        `C      MULS     r0,r4,r0
        0x00001854:    4906        .I      LDR      r1,[pc,#24] ; [0x1870] = 0x200003c0
        0x00001856:    1843        C.      ADDS     r3,r0,r1
        0x00001858:    2000        .       MOVS     r0,#0
        0x0000185a:    6158        Xa      STR      r0,[r3,#0x14]
        0x0000185c:    a006        ..      ADR      r0,{pc}+0x1c ; 0x1878
        0x0000185e:    6518        .e      STR      r0,[r3,#0x50]
        0x00001860:    2000        .       MOVS     r0,#0
        0x00001862:    4906        .I      LDR      r1,[pc,#24] ; [0x187c] = 0x20000050
        0x00001864:    6008        .`      STR      r0,[r1,#0]
        0x00001866:    4802        .H      LDR      r0,[pc,#8] ; [0x1870] = 0x200003c0
        0x00001868:    4905        .I      LDR      r1,[pc,#20] ; [0x1880] = 0x20000048
        0x0000186a:    6008        .`      STR      r0,[r1,#0]
        0x0000186c:    bd70        p.      POP      {r4-r6,pc}
    $d
        0x0000186e:    0000        ..      DCW    0
        0x00001870:    200003c0    ...     DCD    536871872
        0x00001874:    20000394    ...     DCD    536871828
        0x00001878:    0000003f    ?...    DCD    63
        0x0000187c:    20000050    P..     DCD    536870992
        0x00001880:    20000048    H..     DCD    536870984
    $t
    i.OS_InitTaskIdle
    OS_InitTaskIdle
        0x00001884:    b500        ..      PUSH     {lr}
        0x00001886:    b087        ..      SUB      sp,sp,#0x1c
        0x00001888:    2003        .       MOVS     r0,#3
        0x0000188a:    2100        .!      MOVS     r1,#0
        0x0000188c:    220f        ."      MOVS     r2,#0xf
        0x0000188e:    4b0a        .K      LDR      r3,[pc,#40] ; [0x18b8] = 0x20000358
        0x00001890:    9301        ..      STR      r3,[sp,#4]
        0x00001892:    9202        ..      STR      r2,[sp,#8]
        0x00001894:    9103        ..      STR      r1,[sp,#0xc]
        0x00001896:    9004        ..      STR      r0,[sp,#0x10]
        0x00001898:    4808        .H      LDR      r0,[pc,#32] ; [0x18bc] = 0xffff
        0x0000189a:    230a        .#      MOVS     r3,#0xa
        0x0000189c:    4a06        .J      LDR      r2,[pc,#24] ; [0x18b8] = 0x20000358
        0x0000189e:    3238        82      ADDS     r2,r2,#0x38
        0x000018a0:    9000        ..      STR      r0,[sp,#0]
        0x000018a2:    4807        .H      LDR      r0,[pc,#28] ; [0x18c0] = 0x1b71
        0x000018a4:    f7fff9a8    ....    BL       OSTaskCreateExt ; 0xbf8
        0x000018a8:    aa06        ..      ADD      r2,sp,#0x18
        0x000018aa:    a106        ..      ADR      r1,{pc}+0x1a ; 0x18c4
        0x000018ac:    200a        .       MOVS     r0,#0xa
        0x000018ae:    f7fffac1    ....    BL       OSTaskNameSet ; 0xe34
        0x000018b2:    b007        ..      ADD      sp,sp,#0x1c
        0x000018b4:    bd00        ..      POP      {pc}
    $d
        0x000018b6:    0000        ..      DCW    0
        0x000018b8:    20000358    X..     DCD    536871768
        0x000018bc:    0000ffff    ....    DCD    65535
        0x000018c0:    00001b71    q...    DCD    7025
        0x000018c4:    4f2f4375    uC/O    DCD    1328497525
        0x000018c8:    49492d53    S-II    DCD    1229532499
        0x000018cc:    6c644920     Idl    DCD    1818511648
        0x000018d0:    00000065    e...    DCD    101
    $t
    i.OS_InitTaskStat
    OS_InitTaskStat
        0x000018d4:    b500        ..      PUSH     {lr}
        0x000018d6:    b087        ..      SUB      sp,sp,#0x1c
        0x000018d8:    2003        .       MOVS     r0,#3
        0x000018da:    2100        .!      MOVS     r1,#0
        0x000018dc:    220f        ."      MOVS     r2,#0xf
        0x000018de:    4b0a        .K      LDR      r3,[pc,#40] ; [0x1908] = 0x2000031c
        0x000018e0:    9301        ..      STR      r3,[sp,#4]
        0x000018e2:    9202        ..      STR      r2,[sp,#8]
        0x000018e4:    9103        ..      STR      r1,[sp,#0xc]
        0x000018e6:    9004        ..      STR      r0,[sp,#0x10]
        0x000018e8:    4808        .H      LDR      r0,[pc,#32] ; [0x190c] = 0xfffe
        0x000018ea:    2309        .#      MOVS     r3,#9
        0x000018ec:    4a06        .J      LDR      r2,[pc,#24] ; [0x1908] = 0x2000031c
        0x000018ee:    3238        82      ADDS     r2,r2,#0x38
        0x000018f0:    9000        ..      STR      r0,[sp,#0]
        0x000018f2:    4807        .H      LDR      r0,[pc,#28] ; [0x1910] = 0x1bb1
        0x000018f4:    f7fff980    ....    BL       OSTaskCreateExt ; 0xbf8
        0x000018f8:    aa06        ..      ADD      r2,sp,#0x18
        0x000018fa:    a106        ..      ADR      r1,{pc}+0x1a ; 0x1914
        0x000018fc:    2009        .       MOVS     r0,#9
        0x000018fe:    f7fffa99    ....    BL       OSTaskNameSet ; 0xe34
        0x00001902:    b007        ..      ADD      sp,sp,#0x1c
        0x00001904:    bd00        ..      POP      {pc}
    $d
        0x00001906:    0000        ..      DCW    0
        0x00001908:    2000031c    ...     DCD    536871708
        0x0000190c:    0000fffe    ....    DCD    65534
        0x00001910:    00001bb1    ....    DCD    7089
        0x00001914:    4f2f4375    uC/O    DCD    1328497525
        0x00001918:    49492d53    S-II    DCD    1229532499
        0x0000191c:    61745320     Sta    DCD    1635013408
        0x00001920:    00000074    t...    DCD    116
    $t
    i.OS_MemClr
    OS_MemClr
        0x00001924:    e004        ..      B        0x1930 ; OS_MemClr + 12
        0x00001926:    2200        ."      MOVS     r2,#0
        0x00001928:    7002        .p      STRB     r2,[r0,#0]
        0x0000192a:    1c40        @.      ADDS     r0,r0,#1
        0x0000192c:    1e4a        J.      SUBS     r2,r1,#1
        0x0000192e:    b291        ..      UXTH     r1,r2
        0x00001930:    2900        .)      CMP      r1,#0
        0x00001932:    d1f8        ..      BNE      0x1926 ; OS_MemClr + 2
        0x00001934:    4770        pG      BX       lr
        0x00001936:    0000        ..      MOVS     r0,r0
    i.OS_MemInit
    OS_MemInit
        0x00001938:    b510        ..      PUSH     {r4,lr}
        0x0000193a:    2178        x!      MOVS     r1,#0x78
        0x0000193c:    4810        .H      LDR      r0,[pc,#64] ; [0x1980] = 0x200006d8
        0x0000193e:    f7fffff1    ....    BL       OS_MemClr ; 0x1924
        0x00001942:    2400        .$      MOVS     r4,#0
        0x00001944:    e00d        ..      B        0x1962 ; OS_MemInit + 42
        0x00001946:    2018        .       MOVS     r0,#0x18
        0x00001948:    4360        `C      MULS     r0,r4,r0
        0x0000194a:    490d        .I      LDR      r1,[pc,#52] ; [0x1980] = 0x200006d8
        0x0000194c:    1843        C.      ADDS     r3,r0,r1
        0x0000194e:    1c60        `.      ADDS     r0,r4,#1
        0x00001950:    2118        .!      MOVS     r1,#0x18
        0x00001952:    4348        HC      MULS     r0,r1,r0
        0x00001954:    490a        .I      LDR      r1,[pc,#40] ; [0x1980] = 0x200006d8
        0x00001956:    1840        @.      ADDS     r0,r0,r1
        0x00001958:    6058        X`      STR      r0,[r3,#4]
        0x0000195a:    a00a        ..      ADR      r0,{pc}+0x2a ; 0x1984
        0x0000195c:    6158        Xa      STR      r0,[r3,#0x14]
        0x0000195e:    1c60        `.      ADDS     r0,r4,#1
        0x00001960:    b284        ..      UXTH     r4,r0
        0x00001962:    2c04        .,      CMP      r4,#4
        0x00001964:    d3ef        ..      BCC      0x1946 ; OS_MemInit + 14
        0x00001966:    2018        .       MOVS     r0,#0x18
        0x00001968:    4360        `C      MULS     r0,r4,r0
        0x0000196a:    4905        .I      LDR      r1,[pc,#20] ; [0x1980] = 0x200006d8
        0x0000196c:    1843        C.      ADDS     r3,r0,r1
        0x0000196e:    2000        .       MOVS     r0,#0
        0x00001970:    6058        X`      STR      r0,[r3,#4]
        0x00001972:    a004        ..      ADR      r0,{pc}+0x12 ; 0x1984
        0x00001974:    6158        Xa      STR      r0,[r3,#0x14]
        0x00001976:    4608        .F      MOV      r0,r1
        0x00001978:    4903        .I      LDR      r1,[pc,#12] ; [0x1988] = 0x20000058
        0x0000197a:    6008        .`      STR      r0,[r1,#0]
        0x0000197c:    bd10        ..      POP      {r4,pc}
    $d
        0x0000197e:    0000        ..      DCW    0
        0x00001980:    200006d8    ...     DCD    536872664
        0x00001984:    0000003f    ?...    DCD    63
        0x00001988:    20000058    X..     DCD    536871000
    $t
    i.OS_Sched
    OS_Sched
        0x0000198c:    b510        ..      PUSH     {r4,lr}
        0x0000198e:    2400        .$      MOVS     r4,#0
        0x00001990:    f7fefbc2    ....    BL       OS_CPU_SR_Save ; 0x118
        0x00001994:    4604        .F      MOV      r4,r0
        0x00001996:    4814        .H      LDR      r0,[pc,#80] ; [0x19e8] = 0x20000035
        0x00001998:    7800        .x      LDRB     r0,[r0,#0]
        0x0000199a:    2800        .(      CMP      r0,#0
        0x0000199c:    d120         .      BNE      0x19e0 ; OS_Sched + 84
        0x0000199e:    4813        .H      LDR      r0,[pc,#76] ; [0x19ec] = 0x20000036
        0x000019a0:    7800        .x      LDRB     r0,[r0,#0]
        0x000019a2:    2800        .(      CMP      r0,#0
        0x000019a4:    d11c        ..      BNE      0x19e0 ; OS_Sched + 84
        0x000019a6:    f000f82d    ..-.    BL       OS_SchedNew ; 0x1a04
        0x000019aa:    4811        .H      LDR      r0,[pc,#68] ; [0x19f0] = 0x20000038
        0x000019ac:    7800        .x      LDRB     r0,[r0,#0]
        0x000019ae:    0080        ..      LSLS     r0,r0,#2
        0x000019b0:    4910        .I      LDR      r1,[pc,#64] ; [0x19f4] = 0x20000394
        0x000019b2:    5808        .X      LDR      r0,[r1,r0]
        0x000019b4:    4910        .I      LDR      r1,[pc,#64] ; [0x19f8] = 0x2000004c
        0x000019b6:    6008        .`      STR      r0,[r1,#0]
        0x000019b8:    480d        .H      LDR      r0,[pc,#52] ; [0x19f0] = 0x20000038
        0x000019ba:    7800        .x      LDRB     r0,[r0,#0]
        0x000019bc:    490f        .I      LDR      r1,[pc,#60] ; [0x19fc] = 0x20000037
        0x000019be:    7809        .x      LDRB     r1,[r1,#0]
        0x000019c0:    4288        .B      CMP      r0,r1
        0x000019c2:    d00d        ..      BEQ      0x19e0 ; OS_Sched + 84
        0x000019c4:    480c        .H      LDR      r0,[pc,#48] ; [0x19f8] = 0x2000004c
        0x000019c6:    6800        .h      LDR      r0,[r0,#0]
        0x000019c8:    6bc0        .k      LDR      r0,[r0,#0x3c]
        0x000019ca:    1c40        @.      ADDS     r0,r0,#1
        0x000019cc:    490a        .I      LDR      r1,[pc,#40] ; [0x19f8] = 0x2000004c
        0x000019ce:    6809        .h      LDR      r1,[r1,#0]
        0x000019d0:    63c8        .c      STR      r0,[r1,#0x3c]
        0x000019d2:    480b        .H      LDR      r0,[pc,#44] ; [0x1a00] = 0x2000001c
        0x000019d4:    6800        .h      LDR      r0,[r0,#0]
        0x000019d6:    1c40        @.      ADDS     r0,r0,#1
        0x000019d8:    4909        .I      LDR      r1,[pc,#36] ; [0x1a00] = 0x2000001c
        0x000019da:    6008        .`      STR      r0,[r1,#0]
        0x000019dc:    f7fefbb5    ....    BL       OSCtxSw ; 0x14a
        0x000019e0:    4620         F      MOV      r0,r4
        0x000019e2:    f7fefb9d    ....    BL       OS_CPU_SR_Restore ; 0x120
        0x000019e6:    bd10        ..      POP      {r4,pc}
    $d
        0x000019e8:    20000035    5..     DCD    536870965
        0x000019ec:    20000036    6..     DCD    536870966
        0x000019f0:    20000038    8..     DCD    536870968
        0x000019f4:    20000394    ...     DCD    536871828
        0x000019f8:    2000004c    L..     DCD    536870988
        0x000019fc:    20000037    7..     DCD    536870967
        0x00001a00:    2000001c    ...     DCD    536870940
    $t
    i.OS_SchedNew
    OS_SchedNew
        0x00001a04:    4906        .I      LDR      r1,[pc,#24] ; [0x1a20] = 0x204c
        0x00001a06:    4a07        .J      LDR      r2,[pc,#28] ; [0x1a24] = 0x20000039
        0x00001a08:    7812        .x      LDRB     r2,[r2,#0]
        0x00001a0a:    5c88        .\      LDRB     r0,[r1,r2]
        0x00001a0c:    00c1        ..      LSLS     r1,r0,#3
        0x00001a0e:    4a06        .J      LDR      r2,[pc,#24] ; [0x1a28] = 0x2000003a
        0x00001a10:    5c12        .\      LDRB     r2,[r2,r0]
        0x00001a12:    4b03        .K      LDR      r3,[pc,#12] ; [0x1a20] = 0x204c
        0x00001a14:    5c9a        .\      LDRB     r2,[r3,r2]
        0x00001a16:    1889        ..      ADDS     r1,r1,r2
        0x00001a18:    4a04        .J      LDR      r2,[pc,#16] ; [0x1a2c] = 0x20000038
        0x00001a1a:    7011        .p      STRB     r1,[r2,#0]
        0x00001a1c:    4770        pG      BX       lr
    $d
        0x00001a1e:    0000        ..      DCW    0
        0x00001a20:    0000204c    L ..    DCD    8268
        0x00001a24:    20000039    9..     DCD    536870969
        0x00001a28:    2000003a    :..     DCD    536870970
        0x00001a2c:    20000038    8..     DCD    536870968
    $t
    i.OS_TCBInit
    OS_TCBInit
        0x00001a30:    b5ff        ..      PUSH     {r0-r7,lr}
        0x00001a32:    b081        ..      SUB      sp,sp,#4
        0x00001a34:    4605        .F      MOV      r5,r0
        0x00001a36:    460f        .F      MOV      r7,r1
        0x00001a38:    2000        .       MOVS     r0,#0
        0x00001a3a:    9000        ..      STR      r0,[sp,#0]
        0x00001a3c:    f7fefb6c    ..l.    BL       OS_CPU_SR_Save ; 0x118
        0x00001a40:    9000        ..      STR      r0,[sp,#0]
        0x00001a42:    4844        DH      LDR      r0,[pc,#272] ; [0x1b54] = 0x20000048
        0x00001a44:    6804        .h      LDR      r4,[r0,#0]
        0x00001a46:    2c00        .,      CMP      r4,#0
        0x00001a48:    d07f        ..      BEQ      0x1b4a ; OS_TCBInit + 282
        0x00001a4a:    4942        BI      LDR      r1,[pc,#264] ; [0x1b54] = 0x20000048
        0x00001a4c:    6960        `i      LDR      r0,[r4,#0x14]
        0x00001a4e:    6008        .`      STR      r0,[r1,#0]
        0x00001a50:    9800        ..      LDR      r0,[sp,#0]
        0x00001a52:    f7fefb65    ..e.    BL       OS_CPU_SR_Restore ; 0x120
        0x00001a56:    6027        '`      STR      r7,[r4,#0]
        0x00001a58:    2036        6       MOVS     r0,#0x36
        0x00001a5a:    5505        .U      STRB     r5,[r0,r4]
        0x00001a5c:    2100        .!      MOVS     r1,#0
        0x00001a5e:    2034        4       MOVS     r0,#0x34
        0x00001a60:    5501        .U      STRB     r1,[r0,r4]
        0x00001a62:    2035        5       MOVS     r0,#0x35
        0x00001a64:    5501        .U      STRB     r1,[r0,r4]
        0x00001a66:    2000        .       MOVS     r0,#0
        0x00001a68:    6320         c      STR      r0,[r4,#0x30]
        0x00001a6a:    980b        ..      LDR      r0,[sp,#0x2c]
        0x00001a6c:    6060        ``      STR      r0,[r4,#4]
        0x00001a6e:    980a        ..      LDR      r0,[sp,#0x28]
        0x00001a70:    60e0        .`      STR      r0,[r4,#0xc]
        0x00001a72:    9803        ..      LDR      r0,[sp,#0xc]
        0x00001a74:    60a0        .`      STR      r0,[r4,#8]
        0x00001a76:    980c        ..      LDR      r0,[sp,#0x30]
        0x00001a78:    8220         .      STRH     r0,[r4,#0x10]
        0x00001a7a:    9804        ..      LDR      r0,[sp,#0x10]
        0x00001a7c:    8260        `.      STRH     r0,[r4,#0x12]
        0x00001a7e:    203b        ;       MOVS     r0,#0x3b
        0x00001a80:    5501        .U      STRB     r1,[r0,r4]
        0x00001a82:    10e9        ..      ASRS     r1,r5,#3
        0x00001a84:    2038        8       MOVS     r0,#0x38
        0x00001a86:    5501        .U      STRB     r1,[r0,r4]
        0x00001a88:    0769        i.      LSLS     r1,r5,#29
        0x00001a8a:    0f49        I.      LSRS     r1,r1,#29
        0x00001a8c:    2037        7       MOVS     r0,#0x37
        0x00001a8e:    5501        .U      STRB     r1,[r0,r4]
        0x00001a90:    2038        8       MOVS     r0,#0x38
        0x00001a92:    5d01        .]      LDRB     r1,[r0,r4]
        0x00001a94:    2001        .       MOVS     r0,#1
        0x00001a96:    4088        .@      LSLS     r0,r0,r1
        0x00001a98:    b2c1        ..      UXTB     r1,r0
        0x00001a9a:    203a        :       MOVS     r0,#0x3a
        0x00001a9c:    5501        .U      STRB     r1,[r0,r4]
        0x00001a9e:    2037        7       MOVS     r0,#0x37
        0x00001aa0:    5d01        .]      LDRB     r1,[r0,r4]
        0x00001aa2:    2001        .       MOVS     r0,#1
        0x00001aa4:    4088        .@      LSLS     r0,r0,r1
        0x00001aa6:    b2c1        ..      UXTB     r1,r0
        0x00001aa8:    2039        9       MOVS     r0,#0x39
        0x00001aaa:    5501        .U      STRB     r1,[r0,r4]
        0x00001aac:    2000        .       MOVS     r0,#0
        0x00001aae:    61e0        .a      STR      r0,[r4,#0x1c]
        0x00001ab0:    6220         b      STR      r0,[r4,#0x20]
        0x00001ab2:    62a0        .b      STR      r0,[r4,#0x28]
        0x00001ab4:    6260        `b      STR      r0,[r4,#0x24]
        0x00001ab6:    63e0        .c      STR      r0,[r4,#0x3c]
        0x00001ab8:    6460        `d      STR      r0,[r4,#0x44]
        0x00001aba:    6420         d      STR      r0,[r4,#0x40]
        0x00001abc:    64a0        .d      STR      r0,[r4,#0x48]
        0x00001abe:    64e0        .d      STR      r0,[r4,#0x4c]
        0x00001ac0:    a025        %.      ADR      r0,{pc}+0x98 ; 0x1b58
        0x00001ac2:    6520         e      STR      r0,[r4,#0x50]
        0x00001ac4:    2600        .&      MOVS     r6,#0
        0x00001ac6:    e006        ..      B        0x1ad6 ; OS_TCBInit + 166
        0x00001ac8:    2100        .!      MOVS     r1,#0
        0x00001aca:    00b2        ..      LSLS     r2,r6,#2
        0x00001acc:    4620         F      MOV      r0,r4
        0x00001ace:    3054        T0      ADDS     r0,r0,#0x54
        0x00001ad0:    5081        .P      STR      r1,[r0,r2]
        0x00001ad2:    1c70        p.      ADDS     r0,r6,#1
        0x00001ad4:    b2c6        ..      UXTB     r6,r0
        0x00001ad6:    2e00        ..      CMP      r6,#0
        0x00001ad8:    d0f6        ..      BEQ      0x1ac8 ; OS_TCBInit + 152
        0x00001ada:    4620         F      MOV      r0,r4
        0x00001adc:    f7fff886    ....    BL       OSTCBInitHook ; 0xbec
        0x00001ae0:    4620         F      MOV      r0,r4
        0x00001ae2:    f7fff8df    ....    BL       OSTaskCreateHook ; 0xca4
        0x00001ae6:    f7fefb17    ....    BL       OS_CPU_SR_Save ; 0x118
        0x00001aea:    9000        ..      STR      r0,[sp,#0]
        0x00001aec:    00a8        ..      LSLS     r0,r5,#2
        0x00001aee:    491b        .I      LDR      r1,[pc,#108] ; [0x1b5c] = 0x20000394
        0x00001af0:    500c        .P      STR      r4,[r1,r0]
        0x00001af2:    481b        .H      LDR      r0,[pc,#108] ; [0x1b60] = 0x20000050
        0x00001af4:    6800        .h      LDR      r0,[r0,#0]
        0x00001af6:    6160        `a      STR      r0,[r4,#0x14]
        0x00001af8:    2000        .       MOVS     r0,#0
        0x00001afa:    61a0        .a      STR      r0,[r4,#0x18]
        0x00001afc:    4818        .H      LDR      r0,[pc,#96] ; [0x1b60] = 0x20000050
        0x00001afe:    6800        .h      LDR      r0,[r0,#0]
        0x00001b00:    2800        .(      CMP      r0,#0
        0x00001b02:    d002        ..      BEQ      0x1b0a ; OS_TCBInit + 218
        0x00001b04:    4816        .H      LDR      r0,[pc,#88] ; [0x1b60] = 0x20000050
        0x00001b06:    6800        .h      LDR      r0,[r0,#0]
        0x00001b08:    6184        .a      STR      r4,[r0,#0x18]
        0x00001b0a:    4815        .H      LDR      r0,[pc,#84] ; [0x1b60] = 0x20000050
        0x00001b0c:    6004        .`      STR      r4,[r0,#0]
        0x00001b0e:    203a        :       MOVS     r0,#0x3a
        0x00001b10:    5d00        .]      LDRB     r0,[r0,r4]
        0x00001b12:    4914        .I      LDR      r1,[pc,#80] ; [0x1b64] = 0x20000039
        0x00001b14:    7809        .x      LDRB     r1,[r1,#0]
        0x00001b16:    4308        .C      ORRS     r0,r0,r1
        0x00001b18:    4912        .I      LDR      r1,[pc,#72] ; [0x1b64] = 0x20000039
        0x00001b1a:    7008        .p      STRB     r0,[r1,#0]
        0x00001b1c:    2038        8       MOVS     r0,#0x38
        0x00001b1e:    5d00        .]      LDRB     r0,[r0,r4]
        0x00001b20:    4911        .I      LDR      r1,[pc,#68] ; [0x1b68] = 0x2000003a
        0x00001b22:    5c08        .\      LDRB     r0,[r1,r0]
        0x00001b24:    2139        9!      MOVS     r1,#0x39
        0x00001b26:    5d09        .]      LDRB     r1,[r1,r4]
        0x00001b28:    4308        .C      ORRS     r0,r0,r1
        0x00001b2a:    2138        8!      MOVS     r1,#0x38
        0x00001b2c:    5d09        .]      LDRB     r1,[r1,r4]
        0x00001b2e:    4a0e        .J      LDR      r2,[pc,#56] ; [0x1b68] = 0x2000003a
        0x00001b30:    5450        PT      STRB     r0,[r2,r1]
        0x00001b32:    480e        .H      LDR      r0,[pc,#56] ; [0x1b6c] = 0x2000003d
        0x00001b34:    7800        .x      LDRB     r0,[r0,#0]
        0x00001b36:    1c40        @.      ADDS     r0,r0,#1
        0x00001b38:    490c        .I      LDR      r1,[pc,#48] ; [0x1b6c] = 0x2000003d
        0x00001b3a:    7008        .p      STRB     r0,[r1,#0]
        0x00001b3c:    9800        ..      LDR      r0,[sp,#0]
        0x00001b3e:    f7fefaef    ....    BL       OS_CPU_SR_Restore ; 0x120
        0x00001b42:    2000        .       MOVS     r0,#0
        0x00001b44:    b005        ..      ADD      sp,sp,#0x14
        0x00001b46:    bdf0        ..      POP      {r4-r7,pc}
        0x00001b48:    e7ff        ..      B        0x1b4a ; OS_TCBInit + 282
        0x00001b4a:    9800        ..      LDR      r0,[sp,#0]
        0x00001b4c:    f7fefae8    ....    BL       OS_CPU_SR_Restore ; 0x120
        0x00001b50:    2042        B       MOVS     r0,#0x42
        0x00001b52:    e7f7        ..      B        0x1b44 ; OS_TCBInit + 276
    $d
        0x00001b54:    20000048    H..     DCD    536870984
        0x00001b58:    0000003f    ?...    DCD    63
        0x00001b5c:    20000394    ...     DCD    536871828
        0x00001b60:    20000050    P..     DCD    536870992
        0x00001b64:    20000039    9..     DCD    536870969
        0x00001b68:    2000003a    :..     DCD    536870970
        0x00001b6c:    2000003d    =..     DCD    536870973
    $t
    i.OS_TaskIdle
    OS_TaskIdle
        0x00001b70:    2400        .$      MOVS     r4,#0
        0x00001b72:    bf00        ..      NOP      
        0x00001b74:    bf00        ..      NOP      
        0x00001b76:    f7fefacf    ....    BL       OS_CPU_SR_Save ; 0x118
        0x00001b7a:    4604        .F      MOV      r4,r0
        0x00001b7c:    4805        .H      LDR      r0,[pc,#20] ; [0x1b94] = 0x20000040
        0x00001b7e:    6800        .h      LDR      r0,[r0,#0]
        0x00001b80:    1c40        @.      ADDS     r0,r0,#1
        0x00001b82:    4904        .I      LDR      r1,[pc,#16] ; [0x1b94] = 0x20000040
        0x00001b84:    6008        .`      STR      r0,[r1,#0]
        0x00001b86:    4620         F      MOV      r0,r4
        0x00001b88:    f7fefaca    ....    BL       OS_CPU_SR_Restore ; 0x120
        0x00001b8c:    f7fff94e    ..N.    BL       OSTaskIdleHook ; 0xe2c
        0x00001b90:    e7f1        ..      B        0x1b76 ; OS_TaskIdle + 6
    $d
        0x00001b92:    0000        ..      DCW    0
        0x00001b94:    20000040    @..     DCD    536870976
    $t
    i.OS_TaskReturn
    OS_TaskReturn
        0x00001b98:    b510        ..      PUSH     {r4,lr}
        0x00001b9a:    4804        .H      LDR      r0,[pc,#16] ; [0x1bac] = 0x20000044
        0x00001b9c:    6800        .h      LDR      r0,[r0,#0]
        0x00001b9e:    f7fff981    ....    BL       OSTaskReturnHook ; 0xea4
        0x00001ba2:    20ff        .       MOVS     r0,#0xff
        0x00001ba4:    f7fff884    ....    BL       OSTaskDel ; 0xcb0
        0x00001ba8:    bd10        ..      POP      {r4,pc}
    $d
        0x00001baa:    0000        ..      DCW    0
        0x00001bac:    20000044    D..     DCD    536870980
    $t
    i.OS_TaskStat
    OS_TaskStat
        0x00001bb0:    2400        .$      MOVS     r4,#0
        0x00001bb2:    bf00        ..      NOP      
        0x00001bb4:    e002        ..      B        0x1bbc ; OS_TaskStat + 12
        0x00001bb6:    20c8        .       MOVS     r0,#0xc8
        0x00001bb8:    f7fffa5c    ..\.    BL       OSTimeDly ; 0x1074
        0x00001bbc:    4819        .H      LDR      r0,[pc,#100] ; [0x1c24] = 0x20000034
        0x00001bbe:    7800        .x      LDRB     r0,[r0,#0]
        0x00001bc0:    2800        .(      CMP      r0,#0
        0x00001bc2:    d0f8        ..      BEQ      0x1bb6 ; OS_TaskStat + 6
        0x00001bc4:    2164        d!      MOVS     r1,#0x64
        0x00001bc6:    4818        .H      LDR      r0,[pc,#96] ; [0x1c28] = 0x2000002c
        0x00001bc8:    6800        .h      LDR      r0,[r0,#0]
        0x00001bca:    f7fefaff    ....    BL       __aeabi_uidiv ; 0x1cc
        0x00001bce:    4916        .I      LDR      r1,[pc,#88] ; [0x1c28] = 0x2000002c
        0x00001bd0:    6008        .`      STR      r0,[r1,#0]
        0x00001bd2:    4608        .F      MOV      r0,r1
        0x00001bd4:    6800        .h      LDR      r0,[r0,#0]
        0x00001bd6:    2800        .(      CMP      r0,#0
        0x00001bd8:    d104        ..      BNE      0x1be4 ; OS_TaskStat + 52
        0x00001bda:    4914        .I      LDR      r1,[pc,#80] ; [0x1c2c] = 0x20000028
        0x00001bdc:    7008        .p      STRB     r0,[r1,#0]
        0x00001bde:    20ff        .       MOVS     r0,#0xff
        0x00001be0:    f7fff9f0    ....    BL       OSTaskSuspend ; 0xfc4
        0x00001be4:    bf00        ..      NOP      
        0x00001be6:    f7fefa97    ....    BL       OS_CPU_SR_Save ; 0x118
        0x00001bea:    4604        .F      MOV      r4,r0
        0x00001bec:    4810        .H      LDR      r0,[pc,#64] ; [0x1c30] = 0x20000040
        0x00001bee:    6800        .h      LDR      r0,[r0,#0]
        0x00001bf0:    4910        .I      LDR      r1,[pc,#64] ; [0x1c34] = 0x20000030
        0x00001bf2:    6008        .`      STR      r0,[r1,#0]
        0x00001bf4:    2000        .       MOVS     r0,#0
        0x00001bf6:    490e        .I      LDR      r1,[pc,#56] ; [0x1c30] = 0x20000040
        0x00001bf8:    6008        .`      STR      r0,[r1,#0]
        0x00001bfa:    4620         F      MOV      r0,r4
        0x00001bfc:    f7fefa90    ....    BL       OS_CPU_SR_Restore ; 0x120
        0x00001c00:    4809        .H      LDR      r0,[pc,#36] ; [0x1c28] = 0x2000002c
        0x00001c02:    6801        .h      LDR      r1,[r0,#0]
        0x00001c04:    480b        .H      LDR      r0,[pc,#44] ; [0x1c34] = 0x20000030
        0x00001c06:    6800        .h      LDR      r0,[r0,#0]
        0x00001c08:    f7fefae0    ....    BL       __aeabi_uidiv ; 0x1cc
        0x00001c0c:    2164        d!      MOVS     r1,#0x64
        0x00001c0e:    1a08        ..      SUBS     r0,r1,r0
        0x00001c10:    4906        .I      LDR      r1,[pc,#24] ; [0x1c2c] = 0x20000028
        0x00001c12:    7008        .p      STRB     r0,[r1,#0]
        0x00001c14:    f7fff94c    ..L.    BL       OSTaskStatHook ; 0xeb0
        0x00001c18:    f000f80e    ....    BL       OS_TaskStatStkChk ; 0x1c38
        0x00001c1c:    2064        d       MOVS     r0,#0x64
        0x00001c1e:    f7fffa29    ..).    BL       OSTimeDly ; 0x1074
        0x00001c22:    e7e0        ..      B        0x1be6 ; OS_TaskStat + 54
    $d
        0x00001c24:    20000034    4..     DCD    536870964
        0x00001c28:    2000002c    ,..     DCD    536870956
        0x00001c2c:    20000028    (..     DCD    536870952
        0x00001c30:    20000040    @..     DCD    536870976
        0x00001c34:    20000030    0..     DCD    536870960
    $t
    i.OS_TaskStatStkChk
    OS_TaskStatStkChk
        0x00001c38:    b57c        |.      PUSH     {r2-r6,lr}
        0x00001c3a:    2500        .%      MOVS     r5,#0
        0x00001c3c:    e016        ..      B        0x1c6c ; OS_TaskStatStkChk + 52
        0x00001c3e:    4669        iF      MOV      r1,sp
        0x00001c40:    4628        (F      MOV      r0,r5
        0x00001c42:    f7fff939    ..9.    BL       OSTaskStkChk ; 0xeb8
        0x00001c46:    4606        .F      MOV      r6,r0
        0x00001c48:    2e00        ..      CMP      r6,#0
        0x00001c4a:    d10d        ..      BNE      0x1c68 ; OS_TaskStatStkChk + 48
        0x00001c4c:    00a8        ..      LSLS     r0,r5,#2
        0x00001c4e:    4909        .I      LDR      r1,[pc,#36] ; [0x1c74] = 0x20000394
        0x00001c50:    580c        .X      LDR      r4,[r1,r0]
        0x00001c52:    2c00        .,      CMP      r4,#0
        0x00001c54:    d008        ..      BEQ      0x1c68 ; OS_TaskStatStkChk + 48
        0x00001c56:    2c01        .,      CMP      r4,#1
        0x00001c58:    d006        ..      BEQ      0x1c68 ; OS_TaskStatStkChk + 48
        0x00001c5a:    68e1        .h      LDR      r1,[r4,#0xc]
        0x00001c5c:    0089        ..      LSLS     r1,r1,#2
        0x00001c5e:    68a0        .h      LDR      r0,[r4,#8]
        0x00001c60:    1840        @.      ADDS     r0,r0,r1
        0x00001c62:    64a0        .d      STR      r0,[r4,#0x48]
        0x00001c64:    9801        ..      LDR      r0,[sp,#4]
        0x00001c66:    64e0        .d      STR      r0,[r4,#0x4c]
        0x00001c68:    1c68        h.      ADDS     r0,r5,#1
        0x00001c6a:    b2c5        ..      UXTB     r5,r0
        0x00001c6c:    2d0a        .-      CMP      r5,#0xa
        0x00001c6e:    d9e6        ..      BLS      0x1c3e ; OS_TaskStatStkChk + 6
        0x00001c70:    bd7c        |.      POP      {r2-r6,pc}
    $d
        0x00001c72:    0000        ..      DCW    0
        0x00001c74:    20000394    ...     DCD    536871828
    $t
    i.OS_TaskStkClr
    OS_TaskStkClr
        0x00001c78:    07d3        ..      LSLS     r3,r2,#31
        0x00001c7a:    0fdb        ..      LSRS     r3,r3,#31
        0x00001c7c:    d008        ..      BEQ      0x1c90 ; OS_TaskStkClr + 24
        0x00001c7e:    2302        .#      MOVS     r3,#2
        0x00001c80:    421a        .B      TST      r2,r3
        0x00001c82:    d005        ..      BEQ      0x1c90 ; OS_TaskStkClr + 24
        0x00001c84:    e002        ..      B        0x1c8c ; OS_TaskStkClr + 20
        0x00001c86:    1e49        I.      SUBS     r1,r1,#1
        0x00001c88:    2300        .#      MOVS     r3,#0
        0x00001c8a:    c008        ..      STM      r0!,{r3}
        0x00001c8c:    2900        .)      CMP      r1,#0
        0x00001c8e:    d1fa        ..      BNE      0x1c86 ; OS_TaskStkClr + 14
        0x00001c90:    4770        pG      BX       lr
        0x00001c92:    0000        ..      MOVS     r0,r0
    i.SystemCoreClockUpdate
    SystemCoreClockUpdate
        0x00001c94:    b570        p.      PUSH     {r4-r6,lr}
        0x00001c96:    f7fefb81    ....    BL       DrvSYS_GetPLLClockFreq ; 0x39c
        0x00001c9a:    4911        .I      LDR      r1,[pc,#68] ; [0x1ce0] = 0x20000008
        0x00001c9c:    6008        .`      STR      r0,[r1,#0]
        0x00001c9e:    4811        .H      LDR      r0,[pc,#68] ; [0x1ce4] = 0x50000200
        0x00001ca0:    6900        .i      LDR      r0,[r0,#0x10]
        0x00001ca2:    0745        E.      LSLS     r5,r0,#29
        0x00001ca4:    0f6d        m.      LSRS     r5,r5,#29
        0x00001ca6:    2d02        .-      CMP      r5,#2
        0x00001ca8:    d003        ..      BEQ      0x1cb2 ; SystemCoreClockUpdate + 30
        0x00001caa:    00a8        ..      LSLS     r0,r5,#2
        0x00001cac:    490e        .I      LDR      r1,[pc,#56] ; [0x1ce8] = 0x202c
        0x00001cae:    580c        .X      LDR      r4,[r1,r0]
        0x00001cb0:    e001        ..      B        0x1cb6 ; SystemCoreClockUpdate + 34
        0x00001cb2:    480b        .H      LDR      r0,[pc,#44] ; [0x1ce0] = 0x20000008
        0x00001cb4:    6804        .h      LDR      r4,[r0,#0]
        0x00001cb6:    480b        .H      LDR      r0,[pc,#44] ; [0x1ce4] = 0x50000200
        0x00001cb8:    6980        .i      LDR      r0,[r0,#0x18]
        0x00001cba:    0700        ..      LSLS     r0,r0,#28
        0x00001cbc:    0f00        ..      LSRS     r0,r0,#28
        0x00001cbe:    1c46        F.      ADDS     r6,r0,#1
        0x00001cc0:    4631        1F      MOV      r1,r6
        0x00001cc2:    4620         F      MOV      r0,r4
        0x00001cc4:    f7fefa82    ....    BL       __aeabi_uidiv ; 0x1cc
        0x00001cc8:    4908        .I      LDR      r1,[pc,#32] ; [0x1cec] = 0x20000000
        0x00001cca:    6008        .`      STR      r0,[r1,#0]
        0x00001ccc:    4908        .I      LDR      r1,[pc,#32] ; [0x1cf0] = 0xf4240
        0x00001cce:    4807        .H      LDR      r0,[pc,#28] ; [0x1cec] = 0x20000000
        0x00001cd0:    6800        .h      LDR      r0,[r0,#0]
        0x00001cd2:    104a        J.      ASRS     r2,r1,#1
        0x00001cd4:    1880        ..      ADDS     r0,r0,r2
        0x00001cd6:    f7fefa79    ..y.    BL       __aeabi_uidiv ; 0x1cc
        0x00001cda:    4906        .I      LDR      r1,[pc,#24] ; [0x1cf4] = 0x20000004
        0x00001cdc:    6008        .`      STR      r0,[r1,#0]
        0x00001cde:    bd70        p.      POP      {r4-r6,pc}
    $d
        0x00001ce0:    20000008    ...     DCD    536870920
        0x00001ce4:    50000200    ...P    DCD    1342177792
        0x00001ce8:    0000202c    , ..    DCD    8236
        0x00001cec:    20000000    ...     DCD    536870912
        0x00001cf0:    000f4240    @B..    DCD    1000000
        0x00001cf4:    20000004    ...     DCD    536870916
    $t
    i.SystemInit
    SystemInit
        0x00001cf8:    4815        .H      LDR      r0,[pc,#84] ; [0x1d50] = 0x2ee0
        0x00001cfa:    bf00        ..      NOP      
        0x00001cfc:    2159        Y!      MOVS     r1,#0x59
        0x00001cfe:    4a15        .J      LDR      r2,[pc,#84] ; [0x1d54] = 0x50000100
        0x00001d00:    6011        .`      STR      r1,[r2,#0]
        0x00001d02:    2116        .!      MOVS     r1,#0x16
        0x00001d04:    6011        .`      STR      r1,[r2,#0]
        0x00001d06:    2188        .!      MOVS     r1,#0x88
        0x00001d08:    6011        .`      STR      r1,[r2,#0]
        0x00001d0a:    bf00        ..      NOP      
        0x00001d0c:    4912        .I      LDR      r1,[pc,#72] ; [0x1d58] = 0x50000200
        0x00001d0e:    6a09        .j      LDR      r1,[r1,#0x20]
        0x00001d10:    1312        ..      ASRS     r2,r2,#12
        0x00001d12:    4391        .C      BICS     r1,r1,r2
        0x00001d14:    4a10        .J      LDR      r2,[pc,#64] ; [0x1d58] = 0x50000200
        0x00001d16:    6211        .b      STR      r1,[r2,#0x20]
        0x00001d18:    4611        .F      MOV      r1,r2
        0x00001d1a:    6809        .h      LDR      r1,[r1,#0]
        0x00001d1c:    2201        ."      MOVS     r2,#1
        0x00001d1e:    4311        .C      ORRS     r1,r1,r2
        0x00001d20:    4a0d        .J      LDR      r2,[pc,#52] ; [0x1d58] = 0x50000200
        0x00001d22:    6011        .`      STR      r1,[r2,#0]
        0x00001d24:    e004        ..      B        0x1d30 ; SystemInit + 56
        0x00001d26:    4601        .F      MOV      r1,r0
        0x00001d28:    1e40        @.      SUBS     r0,r0,#1
        0x00001d2a:    2900        .)      CMP      r1,#0
        0x00001d2c:    dc00        ..      BGT      0x1d30 ; SystemInit + 56
        0x00001d2e:    e004        ..      B        0x1d3a ; SystemInit + 66
        0x00001d30:    4909        .I      LDR      r1,[pc,#36] ; [0x1d58] = 0x50000200
        0x00001d32:    68c9        .h      LDR      r1,[r1,#0xc]
        0x00001d34:    2204        ."      MOVS     r2,#4
        0x00001d36:    4211        .B      TST      r1,r2
        0x00001d38:    d0f5        ..      BEQ      0x1d26 ; SystemInit + 46
        0x00001d3a:    bf00        ..      NOP      
        0x00001d3c:    2102        .!      MOVS     r1,#2
        0x00001d3e:    4a06        .J      LDR      r2,[pc,#24] ; [0x1d58] = 0x50000200
        0x00001d40:    6111        .a      STR      r1,[r2,#0x10]
        0x00001d42:    bf00        ..      NOP      
        0x00001d44:    2100        .!      MOVS     r1,#0
        0x00001d46:    4a03        .J      LDR      r2,[pc,#12] ; [0x1d54] = 0x50000100
        0x00001d48:    6011        .`      STR      r1,[r2,#0]
        0x00001d4a:    bf00        ..      NOP      
        0x00001d4c:    4770        pG      BX       lr
    $d
        0x00001d4e:    0000        ..      DCW    0
        0x00001d50:    00002ee0    ....    DCD    12000
        0x00001d54:    50000100    ...P    DCD    1342177536
        0x00001d58:    50000200    ...P    DCD    1342177792
    $t
    i.T_set_mode1
    T_set_mode1
        0x00001d5c:    b500        ..      PUSH     {lr}
        0x00001d5e:    20ff        .       MOVS     r0,#0xff
        0x00001d60:    4905        .I      LDR      r1,[pc,#20] ; [0x1d78] = 0x200001f9
        0x00001d62:    7008        .p      STRB     r0,[r1,#0]
        0x00001d64:    7048        Hp      STRB     r0,[r1,#1]
        0x00001d66:    7088        .p      STRB     r0,[r1,#2]
        0x00001d68:    70c8        .p      STRB     r0,[r1,#3]
        0x00001d6a:    7108        .q      STRB     r0,[r1,#4]
        0x00001d6c:    7148        Hq      STRB     r0,[r1,#5]
        0x00001d6e:    2006        .       MOVS     r0,#6
        0x00001d70:    f000f94a    ..J.    BL       usart1_sendbuf ; 0x2008
        0x00001d74:    bd00        ..      POP      {pc}
    $d
        0x00001d76:    0000        ..      DCW    0
        0x00001d78:    200001f9    ...     DCD    536871417
    $t
    i.UART1_IRQHandler
    UART1_IRQHandler
        0x00001d7c:    b510        ..      PUSH     {r4,lr}
        0x00001d7e:    481b        .H      LDR      r0,[pc,#108] ; [0x1dec] = 0x40150000
        0x00001d80:    69c0        .i      LDR      r0,[r0,#0x1c]
        0x00001d82:    21ff        .!      MOVS     r1,#0xff
        0x00001d84:    3101        .1      ADDS     r1,#1
        0x00001d86:    4208        .B      TST      r0,r1
        0x00001d88:    d003        ..      BEQ      0x1d92 ; UART1_IRQHandler + 22
        0x00001d8a:    4818        .H      LDR      r0,[pc,#96] ; [0x1dec] = 0x40150000
        0x00001d8c:    6800        .h      LDR      r0,[r0,#0]
        0x00001d8e:    b2c4        ..      UXTB     r4,r0
        0x00001d90:    e02a        *.      B        0x1de8 ; UART1_IRQHandler + 108
        0x00001d92:    4816        .H      LDR      r0,[pc,#88] ; [0x1dec] = 0x40150000
        0x00001d94:    69c0        .i      LDR      r0,[r0,#0x1c]
        0x00001d96:    2101        .!      MOVS     r1,#1
        0x00001d98:    0249        I.      LSLS     r1,r1,#9
        0x00001d9a:    4208        .B      TST      r0,r1
        0x00001d9c:    d024        $.      BEQ      0x1de8 ; UART1_IRQHandler + 108
        0x00001d9e:    4814        .H      LDR      r0,[pc,#80] ; [0x1df0] = 0x20000019
        0x00001da0:    7800        .x      LDRB     r0,[r0,#0]
        0x00001da2:    4914        .I      LDR      r1,[pc,#80] ; [0x1df4] = 0x20000018
        0x00001da4:    7809        .x      LDRB     r1,[r1,#0]
        0x00001da6:    4288        .B      CMP      r0,r1
        0x00001da8:    da0f        ..      BGE      0x1dca ; UART1_IRQHandler + 78
        0x00001daa:    4811        .H      LDR      r0,[pc,#68] ; [0x1df0] = 0x20000019
        0x00001dac:    7800        .x      LDRB     r0,[r0,#0]
        0x00001dae:    2814        .(      CMP      r0,#0x14
        0x00001db0:    da0b        ..      BGE      0x1dca ; UART1_IRQHandler + 78
        0x00001db2:    4911        .I      LDR      r1,[pc,#68] ; [0x1df8] = 0x200001f9
        0x00001db4:    4a0e        .J      LDR      r2,[pc,#56] ; [0x1df0] = 0x20000019
        0x00001db6:    7812        .x      LDRB     r2,[r2,#0]
        0x00001db8:    5c88        .\      LDRB     r0,[r1,r2]
        0x00001dba:    f000f8f9    ....    BL       usart1_send ; 0x1fb0
        0x00001dbe:    480c        .H      LDR      r0,[pc,#48] ; [0x1df0] = 0x20000019
        0x00001dc0:    7800        .x      LDRB     r0,[r0,#0]
        0x00001dc2:    1c40        @.      ADDS     r0,r0,#1
        0x00001dc4:    490a        .I      LDR      r1,[pc,#40] ; [0x1df0] = 0x20000019
        0x00001dc6:    7008        .p      STRB     r0,[r1,#0]
        0x00001dc8:    e00e        ..      B        0x1de8 ; UART1_IRQHandler + 108
        0x00001dca:    2000        .       MOVS     r0,#0
        0x00001dcc:    4908        .I      LDR      r1,[pc,#32] ; [0x1df0] = 0x20000019
        0x00001dce:    7008        .p      STRB     r0,[r1,#0]
        0x00001dd0:    4806        .H      LDR      r0,[pc,#24] ; [0x1dec] = 0x40150000
        0x00001dd2:    6840        @h      LDR      r0,[r0,#4]
        0x00001dd4:    2102        .!      MOVS     r1,#2
        0x00001dd6:    4388        .C      BICS     r0,r0,r1
        0x00001dd8:    4904        .I      LDR      r1,[pc,#16] ; [0x1dec] = 0x40150000
        0x00001dda:    6048        H`      STR      r0,[r1,#4]
        0x00001ddc:    4608        .F      MOV      r0,r1
        0x00001dde:    68c0        .h      LDR      r0,[r0,#0xc]
        0x00001de0:    2110        .!      MOVS     r1,#0x10
        0x00001de2:    4308        .C      ORRS     r0,r0,r1
        0x00001de4:    4901        .I      LDR      r1,[pc,#4] ; [0x1dec] = 0x40150000
        0x00001de6:    60c8        .`      STR      r0,[r1,#0xc]
        0x00001de8:    bd10        ..      POP      {r4,pc}
    $d
        0x00001dea:    0000        ..      DCW    0
        0x00001dec:    40150000    ...@    DCD    1075118080
        0x00001df0:    20000019    ...     DCD    536870937
        0x00001df4:    20000018    ...     DCD    536870936
        0x00001df8:    200001f9    ...     DCD    536871417
    $t
    i.UART1_Init
    UART1_Init
        0x00001dfc:    4801        .H      LDR      r0,[pc,#4] ; [0x1e04] = 0x300008fe
        0x00001dfe:    4902        .I      LDR      r1,[pc,#8] ; [0x1e08] = 0x40150000
        0x00001e00:    6248        Hb      STR      r0,[r1,#0x24]
        0x00001e02:    4770        pG      BX       lr
    $d
        0x00001e04:    300008fe    ...0    DCD    805308670
        0x00001e08:    40150000    ...@    DCD    1075118080
    $t
    i.__scatterload_copy
    __scatterload_copy
        0x00001e0c:    e002        ..      B        0x1e14 ; __scatterload_copy + 8
        0x00001e0e:    c808        ..      LDM      r0!,{r3}
        0x00001e10:    1f12        ..      SUBS     r2,r2,#4
        0x00001e12:    c108        ..      STM      r1!,{r3}
        0x00001e14:    2a00        .*      CMP      r2,#0
        0x00001e16:    d1fa        ..      BNE      0x1e0e ; __scatterload_copy + 2
        0x00001e18:    4770        pG      BX       lr
    i.__scatterload_null
    __scatterload_null
        0x00001e1a:    4770        pG      BX       lr
    i.__scatterload_zeroinit
    __scatterload_zeroinit
        0x00001e1c:    2000        .       MOVS     r0,#0
        0x00001e1e:    e001        ..      B        0x1e24 ; __scatterload_zeroinit + 8
        0x00001e20:    c101        ..      STM      r1!,{r0}
        0x00001e22:    1f12        ..      SUBS     r2,r2,#4
        0x00001e24:    2a00        .*      CMP      r2,#0
        0x00001e26:    d1fb        ..      BNE      0x1e20 ; __scatterload_zeroinit + 4
        0x00001e28:    4770        pG      BX       lr
        0x00001e2a:    0000        ..      MOVS     r0,r0
    i.main
    main
        0x00001e2c:    b086        ..      SUB      sp,sp,#0x18
        0x00001e2e:    f7ffff63    ..c.    BL       SystemInit ; 0x1cf8
        0x00001e32:    f7ffff2f    ../.    BL       SystemCoreClockUpdate ; 0x1c94
        0x00001e36:    4817        .H      LDR      r0,[pc,#92] ; [0x1e94] = 0x50004000
        0x00001e38:    6800        .h      LDR      r0,[r0,#0]
        0x00001e3a:    210c        .!      MOVS     r1,#0xc
        0x00001e3c:    4388        .C      BICS     r0,r0,r1
        0x00001e3e:    1d00        ..      ADDS     r0,r0,#4
        0x00001e40:    4914        .I      LDR      r1,[pc,#80] ; [0x1e94] = 0x50004000
        0x00001e42:    6008        .`      STR      r0,[r1,#0]
        0x00001e44:    2000        .       MOVS     r0,#0
        0x00001e46:    4914        .I      LDR      r1,[pc,#80] ; [0x1e98] = 0x50004240
        0x00001e48:    6388        .c      STR      r0,[r1,#0x38]
        0x00001e4a:    4814        .H      LDR      r0,[pc,#80] ; [0x1e9c] = 0x40150000
        0x00001e4c:    f000f83c    ..<.    BL       usart1_init ; 0x1ec8
        0x00001e50:    f7fefbf8    ....    BL       OSInit ; 0x644
        0x00001e54:    2003        .       MOVS     r0,#3
        0x00001e56:    2100        .!      MOVS     r1,#0
        0x00001e58:    221e        ."      MOVS     r2,#0x1e
        0x00001e5a:    4b11        .K      LDR      r3,[pc,#68] ; [0x1ea0] = 0x2000007c
        0x00001e5c:    9301        ..      STR      r3,[sp,#4]
        0x00001e5e:    9202        ..      STR      r2,[sp,#8]
        0x00001e60:    9103        ..      STR      r1,[sp,#0xc]
        0x00001e62:    9004        ..      STR      r0,[sp,#0x10]
        0x00001e64:    2004        .       MOVS     r0,#4
        0x00001e66:    4603        .F      MOV      r3,r0
        0x00001e68:    4a0d        .J      LDR      r2,[pc,#52] ; [0x1ea0] = 0x2000007c
        0x00001e6a:    3274        t2      ADDS     r2,r2,#0x74
        0x00001e6c:    9000        ..      STR      r0,[sp,#0]
        0x00001e6e:    480d        .H      LDR      r0,[pc,#52] ; [0x1ea4] = 0x21d
        0x00001e70:    f7fefec2    ....    BL       OSTaskCreateExt ; 0xbf8
        0x00001e74:    aa05        ..      ADD      r2,sp,#0x14
        0x00001e76:    a10c        ..      ADR      r1,{pc}+0x32 ; 0x1ea8
        0x00001e78:    2004        .       MOVS     r0,#4
        0x00001e7a:    f7feffdb    ....    BL       OSTaskNameSet ; 0xe34
        0x00001e7e:    f7fefe69    ..i.    BL       OSStart ; 0xb54
        0x00001e82:    f000f817    ....    BL       raminit ; 0x1eb4
        0x00001e86:    e003        ..      B        0x1e90 ; main + 100
        0x00001e88:    20ff        .       MOVS     r0,#0xff
        0x00001e8a:    30f5        .0      ADDS     r0,r0,#0xf5
        0x00001e8c:    f7fff8f2    ....    BL       OSTimeDly ; 0x1074
        0x00001e90:    e7fa        ..      B        0x1e88 ; main + 92
    $d
        0x00001e92:    0000        ..      DCW    0
        0x00001e94:    50004000    .@.P    DCD    1342193664
        0x00001e98:    50004240    @B.P    DCD    1342194240
        0x00001e9c:    40150000    ...@    DCD    1075118080
        0x00001ea0:    2000007c    |..     DCD    536871036
        0x00001ea4:    0000021d    ....    DCD    541
        0x00001ea8:    72617453    Star    DCD    1918989395
        0x00001eac:    61545f74    t_Ta    DCD    1632919412
        0x00001eb0:    00006b73    sk..    DCD    27507
    $t
    i.raminit
    raminit
        0x00001eb4:    2000        .       MOVS     r0,#0
        0x00001eb6:    4903        .I      LDR      r1,[pc,#12] ; [0x1ec4] = 0x200001f9
        0x00001eb8:    7008        .p      STRB     r0,[r1,#0]
        0x00001eba:    7048        Hp      STRB     r0,[r1,#1]
        0x00001ebc:    7088        .p      STRB     r0,[r1,#2]
        0x00001ebe:    70c8        .p      STRB     r0,[r1,#3]
        0x00001ec0:    7108        .q      STRB     r0,[r1,#4]
        0x00001ec2:    4770        pG      BX       lr
    $d
        0x00001ec4:    200001f9    ...     DCD    536871417
    $t
    i.usart1_init
    usart1_init
        0x00001ec8:    b510        ..      PUSH     {r4,lr}
        0x00001eca:    4604        .F      MOV      r4,r0
        0x00001ecc:    2003        .       MOVS     r0,#3
        0x00001ece:    0280        ..      LSLS     r0,r0,#10
        0x00001ed0:    2105        .!      MOVS     r1,#5
        0x00001ed2:    0709        ..      LSLS     r1,r1,#28
        0x00001ed4:    6348        Hc      STR      r0,[r1,#0x34]
        0x00001ed6:    4832        2H      LDR      r0,[pc,#200] ; [0x1fa0] = 0x40150000
        0x00001ed8:    68c9        .h      LDR      r1,[r1,#0xc]
        0x00001eda:    4a32        2J      LDR      r2,[pc,#200] ; [0x1fa4] = 0x40050000
        0x00001edc:    4290        .B      CMP      r0,r2
        0x00001ede:    d101        ..      BNE      0x1ee4 ; usart1_init + 28
        0x00001ee0:    2201        ."      MOVS     r2,#1
        0x00001ee2:    e000        ..      B        0x1ee6 ; usart1_init + 30
        0x00001ee4:    2200        ."      MOVS     r2,#0
        0x00001ee6:    3210        .2      ADDS     r2,r2,#0x10
        0x00001ee8:    d101        ..      BNE      0x1eee ; usart1_init + 38
        0x00001eea:    2301        .#      MOVS     r3,#1
        0x00001eec:    e000        ..      B        0x1ef0 ; usart1_init + 40
        0x00001eee:    2300        .#      MOVS     r3,#0
        0x00001ef0:    2201        ."      MOVS     r2,#1
        0x00001ef2:    409a        .@      LSLS     r2,r2,r3
        0x00001ef4:    4311        .C      ORRS     r1,r1,r2
        0x00001ef6:    2205        ."      MOVS     r2,#5
        0x00001ef8:    0712        ..      LSLS     r2,r2,#28
        0x00001efa:    60d1        .`      STR      r1,[r2,#0xc]
        0x00001efc:    4611        .F      MOV      r1,r2
        0x00001efe:    68c9        .h      LDR      r1,[r1,#0xc]
        0x00001f00:    4a28        (J      LDR      r2,[pc,#160] ; [0x1fa4] = 0x40050000
        0x00001f02:    4290        .B      CMP      r0,r2
        0x00001f04:    d101        ..      BNE      0x1f0a ; usart1_init + 66
        0x00001f06:    2201        ."      MOVS     r2,#1
        0x00001f08:    e000        ..      B        0x1f0c ; usart1_init + 68
        0x00001f0a:    2200        ."      MOVS     r2,#0
        0x00001f0c:    3210        .2      ADDS     r2,r2,#0x10
        0x00001f0e:    d101        ..      BNE      0x1f14 ; usart1_init + 76
        0x00001f10:    2301        .#      MOVS     r3,#1
        0x00001f12:    e000        ..      B        0x1f16 ; usart1_init + 78
        0x00001f14:    2300        .#      MOVS     r3,#0
        0x00001f16:    2201        ."      MOVS     r2,#1
        0x00001f18:    409a        .@      LSLS     r2,r2,r3
        0x00001f1a:    4391        .C      BICS     r1,r1,r2
        0x00001f1c:    2205        ."      MOVS     r2,#5
        0x00001f1e:    0712        ..      LSLS     r2,r2,#28
        0x00001f20:    60d1        .`      STR      r1,[r2,#0xc]
        0x00001f22:    bf00        ..      NOP      
        0x00001f24:    4820         H      LDR      r0,[pc,#128] ; [0x1fa8] = 0x50000200
        0x00001f26:    6880        .h      LDR      r0,[r0,#8]
        0x00001f28:    2101        .!      MOVS     r1,#1
        0x00001f2a:    0449        I.      LSLS     r1,r1,#17
        0x00001f2c:    4308        .C      ORRS     r0,r0,r1
        0x00001f2e:    491e        .I      LDR      r1,[pc,#120] ; [0x1fa8] = 0x50000200
        0x00001f30:    6088        .`      STR      r0,[r1,#8]
        0x00001f32:    4608        .F      MOV      r0,r1
        0x00001f34:    6940        @i      LDR      r0,[r0,#0x14]
        0x00001f36:    2103        .!      MOVS     r1,#3
        0x00001f38:    0609        ..      LSLS     r1,r1,#24
        0x00001f3a:    4388        .C      BICS     r0,r0,r1
        0x00001f3c:    491a        .I      LDR      r1,[pc,#104] ; [0x1fa8] = 0x50000200
        0x00001f3e:    6148        Ha      STR      r0,[r1,#0x14]
        0x00001f40:    4608        .F      MOV      r0,r1
        0x00001f42:    6980        .i      LDR      r0,[r0,#0x18]
        0x00001f44:    210f        .!      MOVS     r1,#0xf
        0x00001f46:    0209        ..      LSLS     r1,r1,#8
        0x00001f48:    4388        .C      BICS     r0,r0,r1
        0x00001f4a:    4917        .I      LDR      r1,[pc,#92] ; [0x1fa8] = 0x50000200
        0x00001f4c:    6188        .a      STR      r0,[r1,#0x18]
        0x00001f4e:    68a0        .h      LDR      r0,[r4,#8]
        0x00001f50:    2106        .!      MOVS     r1,#6
        0x00001f52:    4308        .C      ORRS     r0,r0,r1
        0x00001f54:    60a0        .`      STR      r0,[r4,#8]
        0x00001f56:    68e0        .h      LDR      r0,[r4,#0xc]
        0x00001f58:    2138        8!      MOVS     r1,#0x38
        0x00001f5a:    4308        .C      ORRS     r0,r0,r1
        0x00001f5c:    60e0        .`      STR      r0,[r4,#0xc]
        0x00001f5e:    4810        .H      LDR      r0,[pc,#64] ; [0x1fa0] = 0x40150000
        0x00001f60:    68c0        .h      LDR      r0,[r0,#0xc]
        0x00001f62:    0880        ..      LSRS     r0,r0,#2
        0x00001f64:    0080        ..      LSLS     r0,r0,#2
        0x00001f66:    490e        .I      LDR      r1,[pc,#56] ; [0x1fa0] = 0x40150000
        0x00001f68:    60c8        .`      STR      r0,[r1,#0xc]
        0x00001f6a:    4608        .F      MOV      r0,r1
        0x00001f6c:    68c0        .h      LDR      r0,[r0,#0xc]
        0x00001f6e:    2103        .!      MOVS     r1,#3
        0x00001f70:    4308        .C      ORRS     r0,r0,r1
        0x00001f72:    490b        .I      LDR      r1,[pc,#44] ; [0x1fa0] = 0x40150000
        0x00001f74:    60c8        .`      STR      r0,[r1,#0xc]
        0x00001f76:    4608        .F      MOV      r0,r1
        0x00001f78:    68c0        .h      LDR      r0,[r0,#0xc]
        0x00001f7a:    2104        .!      MOVS     r1,#4
        0x00001f7c:    4388        .C      BICS     r0,r0,r1
        0x00001f7e:    4908        .I      LDR      r1,[pc,#32] ; [0x1fa0] = 0x40150000
        0x00001f80:    60c8        .`      STR      r0,[r1,#0xc]
        0x00001f82:    2000        .       MOVS     r0,#0
        0x00001f84:    6320         c      STR      r0,[r4,#0x30]
        0x00001f86:    f7ffff39    ..9.    BL       UART1_Init ; 0x1dfc
        0x00001f8a:    6860        `h      LDR      r0,[r4,#4]
        0x00001f8c:    2103        .!      MOVS     r1,#3
        0x00001f8e:    4308        .C      ORRS     r0,r0,r1
        0x00001f90:    6060        ``      STR      r0,[r4,#4]
        0x00001f92:    200d        .       MOVS     r0,#0xd
        0x00001f94:    2101        .!      MOVS     r1,#1
        0x00001f96:    4081        .@      LSLS     r1,r1,r0
        0x00001f98:    4a04        .J      LDR      r2,[pc,#16] ; [0x1fac] = 0xe000e100
        0x00001f9a:    6011        .`      STR      r1,[r2,#0]
        0x00001f9c:    bf00        ..      NOP      
        0x00001f9e:    bd10        ..      POP      {r4,pc}
    $d
        0x00001fa0:    40150000    ...@    DCD    1075118080
        0x00001fa4:    40050000    ...@    DCD    1074069504
        0x00001fa8:    50000200    ...P    DCD    1342177792
        0x00001fac:    e000e100    ....    DCD    3758153984
    $t
    i.usart1_send
    usart1_send
        0x00001fb0:    b530        0.      PUSH     {r4,r5,lr}
        0x00001fb2:    4601        .F      MOV      r1,r0
        0x00001fb4:    460c        .F      MOV      r4,r1
        0x00001fb6:    2000        .       MOVS     r0,#0
        0x00001fb8:    2300        .#      MOVS     r3,#0
        0x00001fba:    e007        ..      B        0x1fcc ; usart1_send + 28
        0x00001fbc:    07e2        ..      LSLS     r2,r4,#31
        0x00001fbe:    0fd2        ..      LSRS     r2,r2,#31
        0x00001fc0:    d001        ..      BEQ      0x1fc6 ; usart1_send + 22
        0x00001fc2:    1c42        B.      ADDS     r2,r0,#1
        0x00001fc4:    b2d0        ..      UXTB     r0,r2
        0x00001fc6:    1064        d.      ASRS     r4,r4,#1
        0x00001fc8:    1c5a        Z.      ADDS     r2,r3,#1
        0x00001fca:    b2d3        ..      UXTB     r3,r2
        0x00001fcc:    2b08        .+      CMP      r3,#8
        0x00001fce:    dbf5        ..      BLT      0x1fbc ; usart1_send + 12
        0x00001fd0:    4602        .F      MOV      r2,r0
        0x00001fd2:    0fc5        ..      LSRS     r5,r0,#31
        0x00001fd4:    18ad        ..      ADDS     r5,r5,r2
        0x00001fd6:    106d        m.      ASRS     r5,r5,#1
        0x00001fd8:    006d        m.      LSLS     r5,r5,#1
        0x00001fda:    1b45        E.      SUBS     r5,r0,r5
        0x00001fdc:    b2e8        ..      UXTB     r0,r5
        0x00001fde:    2801        .(      CMP      r0,#1
        0x00001fe0:    d106        ..      BNE      0x1ff0 ; usart1_send + 64
        0x00001fe2:    4a08        .J      LDR      r2,[pc,#32] ; [0x2004] = 0x40150000
        0x00001fe4:    68d2        .h      LDR      r2,[r2,#0xc]
        0x00001fe6:    2510        .%      MOVS     r5,#0x10
        0x00001fe8:    432a        *C      ORRS     r2,r2,r5
        0x00001fea:    4d06        .M      LDR      r5,[pc,#24] ; [0x2004] = 0x40150000
        0x00001fec:    60ea        .`      STR      r2,[r5,#0xc]
        0x00001fee:    e005        ..      B        0x1ffc ; usart1_send + 76
        0x00001ff0:    4a04        .J      LDR      r2,[pc,#16] ; [0x2004] = 0x40150000
        0x00001ff2:    68d2        .h      LDR      r2,[r2,#0xc]
        0x00001ff4:    2510        .%      MOVS     r5,#0x10
        0x00001ff6:    43aa        .C      BICS     r2,r2,r5
        0x00001ff8:    4d02        .M      LDR      r5,[pc,#8] ; [0x2004] = 0x40150000
        0x00001ffa:    60ea        .`      STR      r2,[r5,#0xc]
        0x00001ffc:    4a01        .J      LDR      r2,[pc,#4] ; [0x2004] = 0x40150000
        0x00001ffe:    6011        .`      STR      r1,[r2,#0]
        0x00002000:    bd30        0.      POP      {r4,r5,pc}
    $d
        0x00002002:    0000        ..      DCW    0
        0x00002004:    40150000    ...@    DCD    1075118080
    $t
    i.usart1_sendbuf
    usart1_sendbuf
        0x00002008:    4905        .I      LDR      r1,[pc,#20] ; [0x2020] = 0x20000018
        0x0000200a:    7008        .p      STRB     r0,[r1,#0]
        0x0000200c:    2100        .!      MOVS     r1,#0
        0x0000200e:    4a05        .J      LDR      r2,[pc,#20] ; [0x2024] = 0x20000019
        0x00002010:    7011        .p      STRB     r1,[r2,#0]
        0x00002012:    4905        .I      LDR      r1,[pc,#20] ; [0x2028] = 0x40150000
        0x00002014:    6849        Ih      LDR      r1,[r1,#4]
        0x00002016:    2202        ."      MOVS     r2,#2
        0x00002018:    4311        .C      ORRS     r1,r1,r2
        0x0000201a:    4a03        .J      LDR      r2,[pc,#12] ; [0x2028] = 0x40150000
        0x0000201c:    6051        Q`      STR      r1,[r2,#4]
        0x0000201e:    4770        pG      BX       lr
    $d
        0x00002020:    20000018    ...     DCD    536870936
        0x00002024:    20000019    ...     DCD    536870937
        0x00002028:    40150000    ...@    DCD    1075118080
    $d.realdata
    .constdata
    gau32ClkSrcTbl
        0x0000202c:    00b71b00    ....    DCD    12000000
        0x00002030:    00000000    ....    DCD    0
        0x00002034:    02faf080    ....    DCD    50000000
        0x00002038:    00002710    .'..    DCD    10000
        0x0000203c:    00000000    ....    DCD    0
        0x00002040:    00000000    ....    DCD    0
        0x00002044:    00000000    ....    DCD    0
        0x00002048:    01518000    ..Q.    DCD    22118400
    .constdata
    OSUnMapTbl
        0x0000204c:    00010000    ....    DCD    65536
        0x00002050:    00010002    ....    DCD    65538
        0x00002054:    00010003    ....    DCD    65539
        0x00002058:    00010002    ....    DCD    65538
        0x0000205c:    00010004    ....    DCD    65540
        0x00002060:    00010002    ....    DCD    65538
        0x00002064:    00010003    ....    DCD    65539
        0x00002068:    00010002    ....    DCD    65538
        0x0000206c:    00010005    ....    DCD    65541
        0x00002070:    00010002    ....    DCD    65538
        0x00002074:    00010003    ....    DCD    65539
        0x00002078:    00010002    ....    DCD    65538
        0x0000207c:    00010004    ....    DCD    65540
        0x00002080:    00010002    ....    DCD    65538
        0x00002084:    00010003    ....    DCD    65539
        0x00002088:    00010002    ....    DCD    65538
        0x0000208c:    00010006    ....    DCD    65542
        0x00002090:    00010002    ....    DCD    65538
        0x00002094:    00010003    ....    DCD    65539
        0x00002098:    00010002    ....    DCD    65538
        0x0000209c:    00010004    ....    DCD    65540
        0x000020a0:    00010002    ....    DCD    65538
        0x000020a4:    00010003    ....    DCD    65539
        0x000020a8:    00010002    ....    DCD    65538
        0x000020ac:    00010005    ....    DCD    65541
        0x000020b0:    00010002    ....    DCD    65538
        0x000020b4:    00010003    ....    DCD    65539
        0x000020b8:    00010002    ....    DCD    65538
        0x000020bc:    00010004    ....    DCD    65540
        0x000020c0:    00010002    ....    DCD    65538
        0x000020c4:    00010003    ....    DCD    65539
        0x000020c8:    00010002    ....    DCD    65538
        0x000020cc:    00010007    ....    DCD    65543
        0x000020d0:    00010002    ....    DCD    65538
        0x000020d4:    00010003    ....    DCD    65539
        0x000020d8:    00010002    ....    DCD    65538
        0x000020dc:    00010004    ....    DCD    65540
        0x000020e0:    00010002    ....    DCD    65538
        0x000020e4:    00010003    ....    DCD    65539
        0x000020e8:    00010002    ....    DCD    65538
        0x000020ec:    00010005    ....    DCD    65541
        0x000020f0:    00010002    ....    DCD    65538
        0x000020f4:    00010003    ....    DCD    65539
        0x000020f8:    00010002    ....    DCD    65538
        0x000020fc:    00010004    ....    DCD    65540
        0x00002100:    00010002    ....    DCD    65538
        0x00002104:    00010003    ....    DCD    65539
        0x00002108:    00010002    ....    DCD    65538
        0x0000210c:    00010006    ....    DCD    65542
        0x00002110:    00010002    ....    DCD    65538
        0x00002114:    00010003    ....    DCD    65539
        0x00002118:    00010002    ....    DCD    65538
        0x0000211c:    00010004    ....    DCD    65540
        0x00002120:    00010002    ....    DCD    65538
        0x00002124:    00010003    ....    DCD    65539
        0x00002128:    00010002    ....    DCD    65538
        0x0000212c:    00010005    ....    DCD    65541
        0x00002130:    00010002    ....    DCD    65538
        0x00002134:    00010003    ....    DCD    65539
        0x00002138:    00010002    ....    DCD    65538
        0x0000213c:    00010004    ....    DCD    65540
        0x00002140:    00010002    ....    DCD    65538
        0x00002144:    00010003    ....    DCD    65539
        0x00002148:    00010002    ....    DCD    65538
    .constdata
    OSDebugEn
        0x0000214c:    00000001    ....    DCD    1
    OSEndiannessTest
        0x00002150:    12345678    xV4.    DCD    305419896
    OSEventEn
        0x00002154:    0001        ..      DCW    1
    OSEventMax
        0x00002156:    000a        ..      DCW    10
    OSEventNameEn
        0x00002158:    0001        ..      DCW    1
    OSEventSize
        0x0000215a:    0014        ..      DCW    20
    OSEventTblSize
        0x0000215c:    00c8        ..      DCW    200
    OSEventMultiEn
        0x0000215e:    0001        ..      DCW    1
    OSFlagEn
        0x00002160:    0001        ..      DCW    1
    OSFlagGrpSize
        0x00002162:    0010        ..      DCW    16
    OSFlagNodeSize
        0x00002164:    0014        ..      DCW    20
    OSFlagWidth
        0x00002166:    0001        ..      DCW    1
    OSFlagMax
        0x00002168:    0005        ..      DCW    5
    OSFlagNameEn
        0x0000216a:    0001        ..      DCW    1
    OSLowestPrio
        0x0000216c:    000a        ..      DCW    10
    OSMboxEn
        0x0000216e:    0001        ..      DCW    1
    OSMemEn
        0x00002170:    0001        ..      DCW    1
    OSMemMax
        0x00002172:    0005        ..      DCW    5
    OSMemNameEn
        0x00002174:    0001        ..      DCW    1
    OSMemSize
        0x00002176:    0018        ..      DCW    24
    OSMemTblSize
        0x00002178:    0078        x.      DCW    120
    OSMutexEn
        0x0000217a:    0001        ..      DCW    1
    OSPtrSize
        0x0000217c:    0004        ..      DCW    4
    OSQEn
        0x0000217e:    0000        ..      DCW    0
    OSQMax
        0x00002180:    0003        ..      DCW    3
    OSQSize
        0x00002182:    0000        ..      DCW    0
    OSRdyTblSize
        0x00002184:    0002        ..      DCW    2
    OSSemEn
        0x00002186:    0001        ..      DCW    1
    OSStkWidth
        0x00002188:    0004        ..      DCW    4
    OSTaskCreateEn
        0x0000218a:    0001        ..      DCW    1
    OSTaskCreateExtEn
        0x0000218c:    0001        ..      DCW    1
    OSTaskDelEn
        0x0000218e:    0001        ..      DCW    1
    OSTaskIdleStkSize
        0x00002190:    000f        ..      DCW    15
    OSTaskProfileEn
        0x00002192:    0001        ..      DCW    1
    OSTaskMax
        0x00002194:    0009        ..      DCW    9
    OSTaskNameEn
        0x00002196:    0001        ..      DCW    1
    OSTaskStatEn
        0x00002198:    0001        ..      DCW    1
    OSTaskStatStkSize
        0x0000219a:    000f        ..      DCW    15
    OSTaskStatStkChkEn
        0x0000219c:    0001        ..      DCW    1
    OSTaskSwHookEn
        0x0000219e:    0001        ..      DCW    1
    OSTCBPrioTblMax
        0x000021a0:    000b        ..      DCW    11
    OSTCBSize
        0x000021a2:    0058        X.      DCW    88
    OSTicksPerSec
        0x000021a4:    03e8        ..      DCW    1000
    OSTimeTickHookEn
        0x000021a6:    0001        ..      DCW    1
    OSVersionNbr
        0x000021a8:    0124        $.      DCW    292
    OSTmrEn
        0x000021aa:    0001        ..      DCW    1
    OSTmrCfgMax
        0x000021ac:    0008        ..      DCW    8
    OSTmrCfgNameEn
        0x000021ae:    0001        ..      DCW    1
    OSTmrCfgWheelSize
        0x000021b0:    0008        ..      DCW    8
    OSTmrCfgTicksPerSec
        0x000021b2:    000a        ..      DCW    10
    OSTmrSize
        0x000021b4:    0028        (.      DCW    40
    OSTmrTblSize
        0x000021b6:    0140        @.      DCW    320
    OSTmrWheelSize
        0x000021b8:    0008        ..      DCW    8
    OSTmrWheelTblSize
        0x000021ba:    0040        @.      DCW    64
    OSDataSize
        0x000021bc:    0000071c    ....    DCD    1820
    Region$$Table$$Base
        0x000021c0:    000021e0    .!..    DCD    8672
        0x000021c4:    20000000    ...     DCD    536870912
        0x000021c8:    0000007c    |...    DCD    124
        0x000021cc:    00001e0c    ....    DCD    7692
        0x000021d0:    0000225c    \"..    DCD    8796
        0x000021d4:    2000007c    |..     DCD    536871036
        0x000021d8:    00000b94    ....    DCD    2964
        0x000021dc:    00001e1c    ....    DCD    7708
    Region$$Table$$Limit

** Section #2 'ER_RW' (SHT_PROGBITS) [SHF_ALLOC + SHF_WRITE]
    Size   : 124 bytes (alignment 4)
    Address: 0x20000000


** Section #3 'ER_ZI' (SHT_NOBITS) [SHF_ALLOC + SHF_WRITE]
    Size   : 2964 bytes (alignment 8)
    Address: 0x2000007c


** Section #4 '.debug_abbrev' (SHT_PROGBITS)
    Size   : 1476 bytes


** Section #5 '.debug_frame' (SHT_PROGBITS)
    Size   : 2584 bytes


** Section #6 '.debug_info' (SHT_PROGBITS)
    Size   : 49968 bytes


** Section #7 '.debug_line' (SHT_PROGBITS)
    Size   : 16020 bytes


** Section #8 '.debug_loc' (SHT_PROGBITS)
    Size   : 6260 bytes


** Section #9 '.debug_macinfo' (SHT_PROGBITS)
    Size   : 138284 bytes


** Section #10 '.debug_pubnames' (SHT_PROGBITS)
    Size   : 6055 bytes


** Section #11 '.symtab' (SHT_SYMTAB)
    Size   : 9104 bytes (alignment 4)
    String table #12 '.strtab'
    Last local symbol no. 292


** Section #12 '.strtab' (SHT_STRTAB)
    Size   : 6404 bytes


** Section #13 '.note' (SHT_NOTE)
    Size   : 28 bytes (alignment 4)


** Section #14 '.comment' (SHT_PROGBITS)
    Size   : 9392 bytes


** Section #15 '.shstrtab' (SHT_STRTAB)
    Size   : 156 bytes


